---
triple:          'arm64-apple-darwin'
binary-path:     task1.o
relocations:
  - { offsetInCU: 0x3F, offset: 0x3F, size: 0x8, addend: 0x0, symName: _name_to_node, symObjAddr: 0x7D7D0, symBinAddr: 0x100010000, symSize: 0x0 }
  - { offsetInCU: 0x828E, offset: 0x828E, size: 0x8, addend: 0x0, symName: __ZNSt3__1L19piecewise_constructE, symObjAddr: 0x8E1A, symBinAddr: 0x10000B9BE, symSize: 0x0 }
  - { offsetInCU: 0x1018F, offset: 0x1018F, size: 0x8, addend: 0x0, symName: __ZNSt3__16copy_nB7v160006IPKcmPcEENS_9enable_ifIXsr33__is_cpp17_random_access_iteratorIT_EE5valueET1_E4typeES5_T0_S6_, symObjAddr: 0x3C30, symBinAddr: 0x1000063E0, symSize: 0x44 }
  - { offsetInCU: 0x104D3, offset: 0x104D3, size: 0x8, addend: 0x0, symName: __ZNSt3__124__put_character_sequenceB7v160006IcNS_11char_traitsIcEEEERNS_13basic_ostreamIT_T0_EES7_PKS4_m, symObjAddr: 0x5FE4, symBinAddr: 0x100008794, symSize: 0x1EC }
  - { offsetInCU: 0x1279D, offset: 0x1279D, size: 0x8, addend: 0x0, symName: __ZNSt3__1plB7v160006IcNS_11char_traitsIcEENS_9allocatorIcEEEENS_12basic_stringIT_T0_T1_EEOS9_RKS9_, symObjAddr: 0x300, symBinAddr: 0x100002AB0, symSize: 0x40 }
  - { offsetInCU: 0x127F5, offset: 0x127F5, size: 0x8, addend: 0x0, symName: __ZNSt3__1plB7v160006IcNS_11char_traitsIcEENS_9allocatorIcEEEENS_12basic_stringIT_T0_T1_EERKS9_PKS6_, symObjAddr: 0x340, symBinAddr: 0x100002AF0, symSize: 0x11C }
  - { offsetInCU: 0x12896, offset: 0x12896, size: 0x8, addend: 0x0, symName: __ZNSt3__1plB7v160006IcNS_11char_traitsIcEENS_9allocatorIcEEEENS_12basic_stringIT_T0_T1_EERKS9_SB_, symObjAddr: 0x4D8, symBinAddr: 0x100002C88, symSize: 0x134 }
  - { offsetInCU: 0x13735, offset: 0x13735, size: 0x8, addend: 0x0, symName: __ZNSt3__1lsB7v160006INS_11char_traitsIcEEEERNS_13basic_ostreamIcT_EES6_PKc, symObjAddr: 0xFB4, symBinAddr: 0x100003764, symSize: 0x48 }
  - { offsetInCU: 0x1377B, offset: 0x1377B, size: 0x8, addend: 0x0, symName: __ZNSt3__17getlineB7v160006IcNS_11char_traitsIcEENS_9allocatorIcEEEERNS_13basic_istreamIT_T0_EES9_RNS_12basic_stringIS6_S7_T1_EE, symObjAddr: 0xFFC, symBinAddr: 0x1000037AC, symSize: 0x5C }
  - { offsetInCU: 0x137D3, offset: 0x137D3, size: 0x8, addend: 0x0, symName: __ZNSt3__1eqB7v160006IcNS_11char_traitsIcEENS_9allocatorIcEEEEbRKNS_12basic_stringIT_T0_T1_EEPKS6_, symObjAddr: 0x126C, symBinAddr: 0x100003A1C, symSize: 0xAC }
  - { offsetInCU: 0x1383A, offset: 0x1383A, size: 0x8, addend: 0x0, symName: __ZNSt3__1neB7v160006ERKNS_14__map_iteratorINS_15__tree_iteratorINS_12__value_typeINS_12basic_stringIcNS_11char_traitsIcEENS_9allocatorIcEEEEP4nodeEEPNS_11__tree_nodeISB_PvEElEEEESJ_, symObjAddr: 0x1478, symBinAddr: 0x100003C28, symSize: 0x30 }
  - { offsetInCU: 0x13877, offset: 0x13877, size: 0x8, addend: 0x0, symName: __ZNSt3__1lsB7v160006INS_11char_traitsIcEEEERNS_13basic_ostreamIcT_EES6_c, symObjAddr: 0x155C, symBinAddr: 0x100003D0C, symSize: 0x34 }
  - { offsetInCU: 0x138BD, offset: 0x138BD, size: 0x8, addend: 0x0, symName: __ZNSt3__1lsB7v160006IcNS_11char_traitsIcEENS_9allocatorIcEEEERNS_13basic_ostreamIT_T0_EES9_RKNS_12basic_stringIS6_S7_T1_EE, symObjAddr: 0x1590, symBinAddr: 0x100003D40, symSize: 0x4C }
  - { offsetInCU: 0x13920, offset: 0x13920, size: 0x8, addend: 0x0, symName: __ZNSt3__119__debug_db_insert_cB7v160006INS_12basic_stringIcNS_11char_traitsIcEENS_9allocatorIcEEEEEEvPT_, symObjAddr: 0x1850, symBinAddr: 0x100004000, symSize: 0x10 }
  - { offsetInCU: 0x13951, offset: 0x13951, size: 0x8, addend: 0x0, symName: __ZNSt3__119__libcpp_deallocateB7v160006EPvmm, symObjAddr: 0x1CAC, symBinAddr: 0x10000445C, symSize: 0x60 }
  - { offsetInCU: 0x139B6, offset: 0x139B6, size: 0x8, addend: 0x0, symName: __ZNSt3__124__is_overaligned_for_newB7v160006Em, symObjAddr: 0x1D0C, symBinAddr: 0x1000044BC, symSize: 0x20 }
  - { offsetInCU: 0x139E4, offset: 0x139E4, size: 0x8, addend: 0x0, symName: __ZNSt3__127__do_deallocate_handle_sizeB7v160006IJSt11align_val_tEEEvPvmDpT_, symObjAddr: 0x1D2C, symBinAddr: 0x1000044DC, symSize: 0x30 }
  - { offsetInCU: 0x13A37, offset: 0x13A37, size: 0x8, addend: 0x0, symName: __ZNSt3__127__do_deallocate_handle_sizeB7v160006IJEEEvPvmDpT_, symObjAddr: 0x1D5C, symBinAddr: 0x10000450C, symSize: 0x28 }
  - { offsetInCU: 0x13A75, offset: 0x13A75, size: 0x8, addend: 0x0, symName: __ZNSt3__124__libcpp_operator_deleteB7v160006IJPvSt11align_val_tEEEvDpT_, symObjAddr: 0x1D84, symBinAddr: 0x100004534, symSize: 0x2C }
  - { offsetInCU: 0x13ABE, offset: 0x13ABE, size: 0x8, addend: 0x0, symName: __ZNSt3__124__libcpp_operator_deleteB7v160006IJPvEEEvDpT_, symObjAddr: 0x1DB0, symBinAddr: 0x100004560, symSize: 0x24 }
  - { offsetInCU: 0x13B59, offset: 0x13B59, size: 0x8, addend: 0x0, symName: __ZNSt3__17launderB7v160006INS_4pairIKNS_12basic_stringIcNS_11char_traitsIcEENS_9allocatorIcEEEEP4nodeEEEEPT_SD_, symObjAddr: 0x2474, symBinAddr: 0x100004C24, symSize: 0x24 }
  - { offsetInCU: 0x13B90, offset: 0x13B90, size: 0x8, addend: 0x0, symName: __ZNSt3__19__launderB7v160006INS_4pairIKNS_12basic_stringIcNS_11char_traitsIcEENS_9allocatorIcEEEEP4nodeEEEEPT_SD_, symObjAddr: 0x2498, symBinAddr: 0x100004C48, symSize: 0x14 }
  - { offsetInCU: 0x13C54, offset: 0x13C54, size: 0x8, addend: 0x0, symName: __ZNSt3__17launderB7v160006INS_4pairIK4nodeS2_EEEEPT_S6_, symObjAddr: 0x2B14, symBinAddr: 0x1000052C4, symSize: 0x24 }
  - { offsetInCU: 0x13C8B, offset: 0x13C8B, size: 0x8, addend: 0x0, symName: __ZNSt3__19__launderB7v160006INS_4pairIK4nodeS2_EEEEPT_S6_, symObjAddr: 0x2B38, symBinAddr: 0x1000052E8, symSize: 0x14 }
  - { offsetInCU: 0x13CC2, offset: 0x13CC2, size: 0x8, addend: 0x0, symName: __ZNSt3__119__debug_db_insert_cB7v160006INS_6vectorINS_12basic_stringIcNS_11char_traitsIcEENS_9allocatorIcEEEENS5_IS7_EEEEEEvPT_, symObjAddr: 0x2C70, symBinAddr: 0x100005420, symSize: 0x10 }
  - { offsetInCU: 0x13CF3, offset: 0x13CF3, size: 0x8, addend: 0x0, symName: __ZNSt3__118__debug_db_erase_cB7v160006INS_6vectorINS_12basic_stringIcNS_11char_traitsIcEENS_9allocatorIcEEEENS5_IS7_EEEEEEvPT_, symObjAddr: 0x2F50, symBinAddr: 0x100005700, symSize: 0x10 }
  - { offsetInCU: 0x13D24, offset: 0x13D24, size: 0x8, addend: 0x0, symName: __ZNSt3__112__to_addressB7v160006INS_12basic_stringIcNS_11char_traitsIcEENS_9allocatorIcEEEEEEPT_S8_, symObjAddr: 0x3094, symBinAddr: 0x100005844, symSize: 0x14 }
  - { offsetInCU: 0x13D59, offset: 0x13D59, size: 0x8, addend: 0x0, symName: __ZNSt3__112__to_addressB7v160006IcEEPT_S2_, symObjAddr: 0x335C, symBinAddr: 0x100005B0C, symSize: 0x14 }
  - { offsetInCU: 0x13D8E, offset: 0x13D8E, size: 0x8, addend: 0x0, symName: __ZNSt3__118__constexpr_strlenB7v160006EPKc, symObjAddr: 0x34E8, symBinAddr: 0x100005C98, symSize: 0x24 }
  - { offsetInCU: 0x13FA6, offset: 0x13FA6, size: 0x8, addend: 0x0, symName: __ZNSt3__120__throw_length_errorB7v160006EPKc, symObjAddr: 0x39F4, symBinAddr: 0x1000061A4, symSize: 0x64 }
  - { offsetInCU: 0x13FCE, offset: 0x13FCE, size: 0x8, addend: 0x0, symName: __ZNSt3__117__libcpp_allocateB7v160006Emm, symObjAddr: 0x3B80, symBinAddr: 0x100006330, symSize: 0x60 }
  - { offsetInCU: 0x14028, offset: 0x14028, size: 0x8, addend: 0x0, symName: __ZNSt3__121__libcpp_operator_newB7v160006IJmSt11align_val_tEEEPvDpT_, symObjAddr: 0x3BE0, symBinAddr: 0x100006390, symSize: 0x2C }
  - { offsetInCU: 0x14075, offset: 0x14075, size: 0x8, addend: 0x0, symName: __ZNSt3__121__libcpp_operator_newB7v160006IJmEEEPvDpT_, symObjAddr: 0x3C0C, symBinAddr: 0x1000063BC, symSize: 0x24 }
  - { offsetInCU: 0x140AE, offset: 0x140AE, size: 0x8, addend: 0x0, symName: __ZNSt3__14copyB7v160006IPKcPcEET0_T_S5_S4_, symObjAddr: 0x3C74, symBinAddr: 0x100006424, symSize: 0x40 }
  - { offsetInCU: 0x14108, offset: 0x14108, size: 0x8, addend: 0x0, symName: __ZNSt3__16__copyB7v160006INS_17_ClassicAlgPolicyEPKcS3_PcEENS_4pairIT0_T2_EES6_T1_S7_, symObjAddr: 0x3CB4, symBinAddr: 0x100006464, symSize: 0x44 }
  - { offsetInCU: 0x14174, offset: 0x14174, size: 0x8, addend: 0x0, symName: __ZNSt3__123__dispatch_copy_or_moveB7v160006INS_17_ClassicAlgPolicyENS_11__copy_loopIS1_EENS_14__copy_trivialEPKcS6_PcEENS_4pairIT2_T4_EES9_T3_SA_, symObjAddr: 0x3CF8, symBinAddr: 0x1000064A8, symSize: 0x44 }
  - { offsetInCU: 0x141F2, offset: 0x141F2, size: 0x8, addend: 0x0, symName: __ZNSt3__121__unwrap_and_dispatchB7v160006INS_10__overloadINS_11__copy_loopINS_17_ClassicAlgPolicyEEENS_14__copy_trivialEEEPKcS8_PcLi0EEENS_4pairIT0_T2_EESB_T1_SC_, symObjAddr: 0x3D3C, symBinAddr: 0x1000064EC, symSize: 0xB4 }
  - { offsetInCU: 0x14280, offset: 0x14280, size: 0x8, addend: 0x0, symName: __ZNSt3__114__unwrap_rangeB7v160006IPKcS2_EENS_4pairIT0_S4_EET_S6_, symObjAddr: 0x3DF0, symBinAddr: 0x1000065A0, symSize: 0x60 }
  - { offsetInCU: 0x14415, offset: 0x14415, size: 0x8, addend: 0x0, symName: __ZNSt3__113__unwrap_iterB7v160006IPcNS_18__unwrap_iter_implIS1_Lb1EEELi0EEEDTclsrT0_8__unwrapclsr3stdE7declvalIT_EEEES5_, symObjAddr: 0x3E98, symBinAddr: 0x100006648, symSize: 0x24 }
  - { offsetInCU: 0x14459, offset: 0x14459, size: 0x8, addend: 0x0, symName: __ZNSt3__19make_pairB7v160006IPKcPcEENS_4pairINS_18__unwrap_ref_decayIT_E4typeENS5_IT0_E4typeEEEOS6_OS9_, symObjAddr: 0x3EBC, symBinAddr: 0x10000666C, symSize: 0x38 }
  - { offsetInCU: 0x144A8, offset: 0x144A8, size: 0x8, addend: 0x0, symName: __ZNSt3__114__rewrap_rangeB7v160006IPKcS2_EET_S3_T0_, symObjAddr: 0x3EF4, symBinAddr: 0x1000066A4, symSize: 0x2C }
  - { offsetInCU: 0x144F4, offset: 0x144F4, size: 0x8, addend: 0x0, symName: __ZNSt3__113__rewrap_iterB7v160006IPcS1_NS_18__unwrap_iter_implIS1_Lb1EEEEET_S4_T0_, symObjAddr: 0x3F20, symBinAddr: 0x1000066D0, symSize: 0x3C }
  - { offsetInCU: 0x14549, offset: 0x14549, size: 0x8, addend: 0x0, symName: __ZNSt3__19make_pairB7v160006IPKcS2_EENS_4pairINS_18__unwrap_ref_decayIT_E4typeENS4_IT0_E4typeEEEOS5_OS8_, symObjAddr: 0x3F5C, symBinAddr: 0x10000670C, symSize: 0x38 }
  - { offsetInCU: 0x14598, offset: 0x14598, size: 0x8, addend: 0x0, symName: __ZNSt3__113__unwrap_iterB7v160006IPKcNS_18__unwrap_iter_implIS2_Lb1EEELi0EEEDTclsrT0_8__unwrapclsr3stdE7declvalIT_EEEES6_, symObjAddr: 0x3F94, symBinAddr: 0x100006744, symSize: 0x24 }
  - { offsetInCU: 0x14703, offset: 0x14703, size: 0x8, addend: 0x0, symName: __ZNSt3__112__to_addressB7v160006IKcEEPT_S3_, symObjAddr: 0x404C, symBinAddr: 0x1000067FC, symSize: 0x14 }
  - { offsetInCU: 0x14738, offset: 0x14738, size: 0x8, addend: 0x0, symName: __ZNSt3__119__copy_trivial_implB7v160006IKccEENS_4pairIPT_PT0_EES4_S4_S6_, symObjAddr: 0x4060, symBinAddr: 0x100006810, symSize: 0x7C }
  - { offsetInCU: 0x147A0, offset: 0x147A0, size: 0x8, addend: 0x0, symName: __ZNSt3__19make_pairB7v160006IRPKcPcEENS_4pairINS_18__unwrap_ref_decayIT_E4typeENS6_IT0_E4typeEEEOS7_OSA_, symObjAddr: 0x40DC, symBinAddr: 0x10000688C, symSize: 0x38 }
  - { offsetInCU: 0x14842, offset: 0x14842, size: 0x8, addend: 0x0, symName: __ZNSt3__113__rewrap_iterB7v160006IPKcS2_NS_18__unwrap_iter_implIS2_Lb1EEEEET_S5_T0_, symObjAddr: 0x4218, symBinAddr: 0x1000069C8, symSize: 0x3C }
  - { offsetInCU: 0x148CA, offset: 0x148CA, size: 0x8, addend: 0x0, symName: __ZNSt3__16fill_nB7v160006IPcmcEET_S2_T0_RKT1_, symObjAddr: 0x439C, symBinAddr: 0x100006B4C, symSize: 0x44 }
  - { offsetInCU: 0x1492D, offset: 0x1492D, size: 0x8, addend: 0x0, symName: __ZNSt3__18__fill_nB7v160006IPcmcEET_S2_T0_RKT1_, symObjAddr: 0x43E0, symBinAddr: 0x100006B90, symSize: 0x64 }
  - { offsetInCU: 0x14990, offset: 0x14990, size: 0x8, addend: 0x0, symName: __ZNSt3__121__convert_to_integralB7v160006Em, symObjAddr: 0x4444, symBinAddr: 0x100006BF4, symSize: 0x14 }
  - { offsetInCU: 0x149BC, offset: 0x149BC, size: 0x8, addend: 0x0, symName: __ZNSt3__115__debug_db_swapB7v160006INS_12basic_stringIcNS_11char_traitsIcEENS_9allocatorIcEEEEEEvPT_S8_, symObjAddr: 0x4558, symBinAddr: 0x100006D08, symSize: 0x14 }
  - { offsetInCU: 0x14A32, offset: 0x14A32, size: 0x8, addend: 0x0, symName: __ZNSt3__116forward_as_tupleB7v160006IJRKNS_12basic_stringIcNS_11char_traitsIcEENS_9allocatorIcEEEEEEENS_5tupleIJDpOT_EEESC_, symObjAddr: 0x46CC, symBinAddr: 0x100006E7C, symSize: 0x2C }
  - { offsetInCU: 0x14A6B, offset: 0x14A6B, size: 0x8, addend: 0x0, symName: __ZNSt3__116forward_as_tupleB7v160006IJEEENS_5tupleIJDpOT_EEES4_, symObjAddr: 0x46F8, symBinAddr: 0x100006EA8, symSize: 0x4 }
  - { offsetInCU: 0x14A8F, offset: 0x14A8F, size: 0x8, addend: 0x0, symName: __ZNSt3__1ltB7v160006IcNS_11char_traitsIcEENS_9allocatorIcEEEEbRKNS_12basic_stringIT_T0_T1_EESB_, symObjAddr: 0x4D14, symBinAddr: 0x1000074C4, symSize: 0x38 }
  - { offsetInCU: 0x14B0B, offset: 0x14B0B, size: 0x8, addend: 0x0, symName: __ZNSt3__13minB7v160006ImEERKT_S3_S3_, symObjAddr: 0x4FB0, symBinAddr: 0x100007760, symSize: 0x2C }
  - { offsetInCU: 0x14B4E, offset: 0x14B4E, size: 0x8, addend: 0x0, symName: __ZNSt3__118__constexpr_memcmpB7v160006IcEEiPKT_S3_m, symObjAddr: 0x4FDC, symBinAddr: 0x10000778C, symSize: 0x34 }
  - { offsetInCU: 0x14B9F, offset: 0x14B9F, size: 0x8, addend: 0x0, symName: __ZNSt3__13minB7v160006ImNS_6__lessImmEEEERKT_S5_S5_T0_, symObjAddr: 0x5010, symBinAddr: 0x1000077C0, symSize: 0x54 }
  - { offsetInCU: 0x14C34, offset: 0x14C34, size: 0x8, addend: 0x0, symName: __ZNSt3__17launderB7v160006IKNS_4pairIKNS_12basic_stringIcNS_11char_traitsIcEENS_9allocatorIcEEEEP4nodeEEEEPT_SE_, symObjAddr: 0x5124, symBinAddr: 0x1000078D4, symSize: 0x24 }
  - { offsetInCU: 0x14C6B, offset: 0x14C6B, size: 0x8, addend: 0x0, symName: __ZNSt3__19__launderB7v160006IKNS_4pairIKNS_12basic_stringIcNS_11char_traitsIcEENS_9allocatorIcEEEEP4nodeEEEEPT_SE_, symObjAddr: 0x5148, symBinAddr: 0x1000078F8, symSize: 0x14 }
  - { offsetInCU: 0x14CCB, offset: 0x14CCB, size: 0x8, addend: 0x0, symName: __ZNSt3__13getB7v160006ILm0EJRKNS_12basic_stringIcNS_11char_traitsIcEENS_9allocatorIcEEEEEEERNS_13tuple_elementIXT_ENS_5tupleIJDpT0_EEEE4typeERSD_, symObjAddr: 0x557C, symBinAddr: 0x100007D2C, symSize: 0x24 }
  - { offsetInCU: 0x14D0E, offset: 0x14D0E, size: 0x8, addend: 0x0, symName: __ZNSt3__127__tree_balance_after_insertB7v160006IPNS_16__tree_node_baseIPvEEEEvT_S5_, symObjAddr: 0x562C, symBinAddr: 0x100007DDC, symSize: 0x32C }
  - { offsetInCU: 0x14D8A, offset: 0x14D8A, size: 0x8, addend: 0x0, symName: __ZNSt3__120__tree_is_left_childB7v160006IPNS_16__tree_node_baseIPvEEEEbT_, symObjAddr: 0x5998, symBinAddr: 0x100008148, symSize: 0x2C }
  - { offsetInCU: 0x14DBF, offset: 0x14DBF, size: 0x8, addend: 0x0, symName: __ZNSt3__118__tree_left_rotateB7v160006IPNS_16__tree_node_baseIPvEEEEvT_, symObjAddr: 0x59C4, symBinAddr: 0x100008174, symSize: 0xD8 }
  - { offsetInCU: 0x14E01, offset: 0x14E01, size: 0x8, addend: 0x0, symName: __ZNSt3__119__tree_right_rotateB7v160006IPNS_16__tree_node_baseIPvEEEEvT_, symObjAddr: 0x5A9C, symBinAddr: 0x10000824C, symSize: 0xCC }
  - { offsetInCU: 0x14E9A, offset: 0x14E9A, size: 0x8, addend: 0x0, symName: __ZNSt3__116__pad_and_outputB7v160006IcNS_11char_traitsIcEEEENS_19ostreambuf_iteratorIT_T0_EES6_PKS4_S8_S8_RNS_8ios_baseES4_, symObjAddr: 0x61EC, symBinAddr: 0x10000899C, symSize: 0x240 }
  - { offsetInCU: 0x14F69, offset: 0x14F69, size: 0x8, addend: 0x0, symName: __ZNSt3__19use_facetB7v160006INS_5ctypeIcEEEERKT_RKNS_6localeE, symObjAddr: 0x67A0, symBinAddr: 0x100008F50, symSize: 0x2C }
  - { offsetInCU: 0x15438, offset: 0x15438, size: 0x8, addend: 0x0, symName: __ZNSt3__17getlineB7v160006IcNS_11char_traitsIcEENS_9allocatorIcEEEERNS_13basic_istreamIT_T0_EES9_RNS_12basic_stringIS6_S7_T1_EES6_, symObjAddr: 0x6838, symBinAddr: 0x100008FE8, symSize: 0x238 }
  - { offsetInCU: 0x154F6, offset: 0x154F6, size: 0x8, addend: 0x0, symName: __ZNSt3__125__debug_db_invalidate_allB7v160006INS_12basic_stringIcNS_11char_traitsIcEENS_9allocatorIcEEEEEEvPT_, symObjAddr: 0x6C54, symBinAddr: 0x100009404, symSize: 0x10 }
  - { offsetInCU: 0x15527, offset: 0x15527, size: 0x8, addend: 0x0, symName: __ZNSt3__123__str_find_first_not_ofB7v160006IcmNS_11char_traitsIcEELm18446744073709551615EEET0_PKT_S3_S6_S3_S3_, symObjAddr: 0x6CE0, symBinAddr: 0x100009490, symSize: 0xDC }
  - { offsetInCU: 0x155F9, offset: 0x155F9, size: 0x8, addend: 0x0, symName: __ZNSt3__123__constexpr_char_memchrB7v160006EPKcim, symObjAddr: 0x6E2C, symBinAddr: 0x1000095DC, symSize: 0x34 }
  - { offsetInCU: 0x15641, offset: 0x15641, size: 0x8, addend: 0x0, symName: __ZNSt3__110__str_findB7v160006IcmNS_11char_traitsIcEELm18446744073709551615EEET0_PKT_S3_S6_S3_S3_, symObjAddr: 0x6E60, symBinAddr: 0x100009610, symSize: 0xE4 }
  - { offsetInCU: 0x156E8, offset: 0x156E8, size: 0x8, addend: 0x0, symName: __ZNSt3__118__search_substringB7v160006IcNS_11char_traitsIcEEEEPKT_S5_S5_S5_S5_, symObjAddr: 0x6F44, symBinAddr: 0x1000096F4, symSize: 0x154 }
  - { offsetInCU: 0x15782, offset: 0x15782, size: 0x8, addend: 0x0, symName: __ZNSt3__13maxB7v160006ImEERKT_S3_S3_, symObjAddr: 0x767C, symBinAddr: 0x100009E2C, symSize: 0x2C }
  - { offsetInCU: 0x159AF, offset: 0x159AF, size: 0x8, addend: 0x0, symName: __ZNSt3__13maxB7v160006ImNS_6__lessImmEEEERKT_S5_S5_T0_, symObjAddr: 0x7760, symBinAddr: 0x100009F10, symSize: 0x54 }
  - { offsetInCU: 0x15A09, offset: 0x15A09, size: 0x8, addend: 0x0, symName: __ZNSt3__119__allocate_at_leastB7v160006INS_9allocatorINS_12basic_stringIcNS_11char_traitsIcEENS1_IcEEEEEEEENS_19__allocation_resultINS_16allocator_traitsIT_E7pointerEEERSA_m, symObjAddr: 0x78D0, symBinAddr: 0x10000A080, symSize: 0x40 }
  - { offsetInCU: 0x15A4C, offset: 0x15A4C, size: 0x8, addend: 0x0, symName: __ZNSt3__142__uninitialized_allocator_move_if_noexceptB7v160006INS_9allocatorINS_12basic_stringIcNS_11char_traitsIcEENS1_IcEEEEEENS_16reverse_iteratorIPS6_EESA_SA_EET2_RT_T0_T1_SB_, symObjAddr: 0x7A88, symBinAddr: 0x10000A238, symSize: 0x12C }
  - { offsetInCU: 0x15AEC, offset: 0x15AEC, size: 0x8, addend: 0x0, symName: __ZNSt3__14swapB7v160006IPNS_12basic_stringIcNS_11char_traitsIcEENS_9allocatorIcEEEEEENS_9enable_ifIXaasr21is_move_constructibleIT_EE5valuesr18is_move_assignableIS9_EE5valueEvE4typeERS9_SC_, symObjAddr: 0x7C00, symBinAddr: 0x10000A3B0, symSize: 0x3C }
  - { offsetInCU: 0x15B3D, offset: 0x15B3D, size: 0x8, addend: 0x0, symName: __ZNSt3__125__debug_db_invalidate_allB7v160006INS_6vectorINS_12basic_stringIcNS_11char_traitsIcEENS_9allocatorIcEEEENS5_IS7_EEEEEEvPT_, symObjAddr: 0x7D04, symBinAddr: 0x10000A4B4, symSize: 0x10 }
  - { offsetInCU: 0x15B6E, offset: 0x15B6E, size: 0x8, addend: 0x0, symName: __ZNSt3__122__make_exception_guardB7v160006INS_29_AllocatorDestroyRangeReverseINS_9allocatorINS_12basic_stringIcNS_11char_traitsIcEENS2_IcEEEEEENS_16reverse_iteratorIPS7_EEEEEENS_28__exception_guard_exceptionsIT_EESE_, symObjAddr: 0x7D14, symBinAddr: 0x10000A4C4, symSize: 0x4C }
  - { offsetInCU: 0x15BA4, offset: 0x15BA4, size: 0x8, addend: 0x0, symName: __ZNSt3__1neB7v160006IPNS_12basic_stringIcNS_11char_traitsIcEENS_9allocatorIcEEEES7_EEbRKNS_16reverse_iteratorIT_EERKNS8_IT0_EE, symObjAddr: 0x7DA4, symBinAddr: 0x10000A554, symSize: 0x48 }
  - { offsetInCU: 0x15BF0, offset: 0x15BF0, size: 0x8, addend: 0x0, symName: __ZNSt3__112__to_addressB7v160006INS_16reverse_iteratorIPNS_12basic_stringIcNS_11char_traitsIcEENS_9allocatorIcEEEEEEvEENS_5decayIDTclsr19__to_address_helperIT_EE6__callclsr3stdE7declvalIRKSB_EEEEE4typeESD_, symObjAddr: 0x7DEC, symBinAddr: 0x10000A59C, symSize: 0x24 }
  - { offsetInCU: 0x15C4F, offset: 0x15C4F, size: 0x8, addend: 0x0, symName: __ZNSt3__119__allocator_destroyB7v160006INS_9allocatorINS_12basic_stringIcNS_11char_traitsIcEENS1_IcEEEEEENS_16reverse_iteratorINS8_IPS6_EEEESB_EEvRT_T0_T1_, symObjAddr: 0x809C, symBinAddr: 0x10000A84C, symSize: 0x70 }
  - { offsetInCU: 0x15CB4, offset: 0x15CB4, size: 0x8, addend: 0x0, symName: __ZNSt3__1neB7v160006INS_16reverse_iteratorIPNS_12basic_stringIcNS_11char_traitsIcEENS_9allocatorIcEEEEEES9_EEbRKNS1_IT_EERKNS1_IT0_EE, symObjAddr: 0x8148, symBinAddr: 0x10000A8F8, symSize: 0x60 }
  - { offsetInCU: 0x15D00, offset: 0x15D00, size: 0x8, addend: 0x0, symName: __ZNSt3__112__to_addressB7v160006INS_16reverse_iteratorINS1_IPNS_12basic_stringIcNS_11char_traitsIcEENS_9allocatorIcEEEEEEEEvEENS_5decayIDTclsr19__to_address_helperIT_EE6__callclsr3stdE7declvalIRKSC_EEEEE4typeESE_, symObjAddr: 0x81A8, symBinAddr: 0x10000A958, symSize: 0x24 }
  - { offsetInCU: 0x15D5F, offset: 0x15D5F, size: 0x8, addend: 0x0, symName: __ZNSt3__1neB7v160006ERKNS_15__tree_iteratorINS_12__value_typeINS_12basic_stringIcNS_11char_traitsIcEENS_9allocatorIcEEEEP4nodeEEPNS_11__tree_nodeISA_PvEElEESH_, symObjAddr: 0x86E0, symBinAddr: 0x10000AE90, symSize: 0x34 }
  - { offsetInCU: 0x15D9C, offset: 0x15D9C, size: 0x8, addend: 0x0, symName: __ZNSt3__1eqB7v160006ERKNS_15__tree_iteratorINS_12__value_typeINS_12basic_stringIcNS_11char_traitsIcEENS_9allocatorIcEEEEP4nodeEEPNS_11__tree_nodeISA_PvEElEESH_, symObjAddr: 0x87C4, symBinAddr: 0x10000AF74, symSize: 0x30 }
  - { offsetInCU: 0x15E0C, offset: 0x15E0C, size: 0x8, addend: 0x0, symName: __ZNSt3__116__tree_next_iterB7v160006IPNS_15__tree_end_nodeIPNS_16__tree_node_baseIPvEEEES5_EET_T0_, symObjAddr: 0x8894, symBinAddr: 0x10000B044, symSize: 0x80 }
  - { offsetInCU: 0x15E4A, offset: 0x15E4A, size: 0x8, addend: 0x0, symName: __ZNSt3__110__tree_minB7v160006IPNS_16__tree_node_baseIPvEEEET_S5_, symObjAddr: 0x8914, symBinAddr: 0x10000B0C4, symSize: 0x40 }
  - { offsetInCU: 0x16322, offset: 0x16322, size: 0x8, addend: 0x0, symName: __ZSt28__throw_bad_array_new_lengthB7v160006v, symObjAddr: 0x3B4C, symBinAddr: 0x1000062FC, symSize: 0x34 }
  - { offsetInCU: 0x169CC, offset: 0x169CC, size: 0x8, addend: 0x0, symName: _node_to_parent_node, symObjAddr: 0x7D7E8, symBinAddr: 0x100010018, symSize: 0x0 }
  - { offsetInCU: 0x16C55, offset: 0x16C55, size: 0x8, addend: 0x0, symName: _file_lines, symObjAddr: 0x7D800, symBinAddr: 0x100010030, symSize: 0x0 }
  - { offsetInCU: 0x1751C, offset: 0x1751C, size: 0x8, addend: 0x0, symName: __ZNSt3__16vectorINS_12basic_stringIcNS_11char_traitsIcEENS_9allocatorIcEEEENS4_IS6_EEE26__swap_out_circular_bufferERNS_14__split_bufferIS6_RS7_EE, symObjAddr: 0x74BC, symBinAddr: 0x100009C6C, symSize: 0x118 }
  - { offsetInCU: 0x19766, offset: 0x19766, size: 0x8, addend: 0x0, symName: __ZNSt3__13mapINS_12basic_stringIcNS_11char_traitsIcEENS_9allocatorIcEEEEP4nodeNS_4lessIS6_EENS4_INS_4pairIKS6_S8_EEEEEC1B7v160006Ev, symObjAddr: 0x0, symBinAddr: 0x1000027B0, symSize: 0x2C }
  - { offsetInCU: 0x19790, offset: 0x19790, size: 0x8, addend: 0x0, symName: __ZNSt3__13mapINS_12basic_stringIcNS_11char_traitsIcEENS_9allocatorIcEEEEP4nodeNS_4lessIS6_EENS4_INS_4pairIKS6_S8_EEEEED1B7v160006Ev, symObjAddr: 0x2C, symBinAddr: 0x1000027DC, symSize: 0x2C }
  - { offsetInCU: 0x197BA, offset: 0x197BA, size: 0x8, addend: 0x0, symName: __ZNSt3__13mapI4nodeS1_NS_4lessIS1_EENS_9allocatorINS_4pairIKS1_S1_EEEEEC1B7v160006Ev, symObjAddr: 0x58, symBinAddr: 0x100002808, symSize: 0x2C }
  - { offsetInCU: 0x197E4, offset: 0x197E4, size: 0x8, addend: 0x0, symName: __ZNSt3__13mapI4nodeS1_NS_4lessIS1_EENS_9allocatorINS_4pairIKS1_S1_EEEEED1B7v160006Ev, symObjAddr: 0x84, symBinAddr: 0x100002834, symSize: 0x2C }
  - { offsetInCU: 0x1980E, offset: 0x1980E, size: 0x8, addend: 0x0, symName: __ZNSt3__16vectorINS_12basic_stringIcNS_11char_traitsIcEENS_9allocatorIcEEEENS4_IS6_EEEC1B7v160006Ev, symObjAddr: 0xB0, symBinAddr: 0x100002860, symSize: 0x2C }
  - { offsetInCU: 0x19838, offset: 0x19838, size: 0x8, addend: 0x0, symName: __ZNSt3__16vectorINS_12basic_stringIcNS_11char_traitsIcEENS_9allocatorIcEEEENS4_IS6_EEED1B7v160006Ev, symObjAddr: 0xDC, symBinAddr: 0x10000288C, symSize: 0x2C }
  - { offsetInCU: 0x19861, offset: 0x19861, size: 0x8, addend: 0x0, symName: __Z20extract_deepest_path4node, symObjAddr: 0x108, symBinAddr: 0x1000028B8, symSize: 0x198 }
  - { offsetInCU: 0x198AD, offset: 0x198AD, size: 0x8, addend: 0x0, symName: __ZNSt3__112basic_stringIcNS_11char_traitsIcEENS_9allocatorIcEEEC1B7v160006Ev, symObjAddr: 0x2A0, symBinAddr: 0x100002A50, symSize: 0x2C }
  - { offsetInCU: 0x198DC, offset: 0x198DC, size: 0x8, addend: 0x0, symName: __ZN4nodeC1ERKS_, symObjAddr: 0x2CC, symBinAddr: 0x100002A7C, symSize: 0x34 }
  - { offsetInCU: 0x19911, offset: 0x19911, size: 0x8, addend: 0x0, symName: __ZNSt3__112basic_stringIcNS_11char_traitsIcEENS_9allocatorIcEEEaSB7v160006EOS5_, symObjAddr: 0x45C, symBinAddr: 0x100002C0C, symSize: 0x34 }
  - { offsetInCU: 0x1994B, offset: 0x1994B, size: 0x8, addend: 0x0, symName: __ZN4nodeaSERKS_, symObjAddr: 0x490, symBinAddr: 0x100002C40, symSize: 0x48 }
  - { offsetInCU: 0x1997C, offset: 0x1997C, size: 0x8, addend: 0x0, symName: __ZN4nodeD1Ev, symObjAddr: 0x60C, symBinAddr: 0x100002DBC, symSize: 0x2C }
  - { offsetInCU: 0x199A8, offset: 0x199A8, size: 0x8, addend: 0x0, symName: _main, symObjAddr: 0x638, symBinAddr: 0x100002DE8, symSize: 0x7B4 }
  - { offsetInCU: 0x19B30, offset: 0x19B30, size: 0x8, addend: 0x0, symName: __ZNSt3__112basic_stringIcNS_11char_traitsIcEENS_9allocatorIcEEEC1B7v160006IDnEEPKc, symObjAddr: 0xDEC, symBinAddr: 0x10000359C, symSize: 0x34 }
  - { offsetInCU: 0x19B6E, offset: 0x19B6E, size: 0x8, addend: 0x0, symName: __ZNSt3__13mapINS_12basic_stringIcNS_11char_traitsIcEENS_9allocatorIcEEEEP4nodeNS_4lessIS6_EENS4_INS_4pairIKS6_S8_EEEEEixERSC_, symObjAddr: 0xE20, symBinAddr: 0x1000035D0, symSize: 0x80 }
  - { offsetInCU: 0x19CC6, offset: 0x19CC6, size: 0x8, addend: 0x0, symName: __ZNSt3__114basic_ifstreamIcNS_11char_traitsIcEEEC1Ev, symObjAddr: 0xEA0, symBinAddr: 0x100003650, symSize: 0xE8 }
  - { offsetInCU: 0x19CF2, offset: 0x19CF2, size: 0x8, addend: 0x0, symName: __ZNKSt3__114basic_ifstreamIcNS_11char_traitsIcEEE7is_openEv, symObjAddr: 0xF88, symBinAddr: 0x100003738, symSize: 0x2C }
  - { offsetInCU: 0x19D1A, offset: 0x19D1A, size: 0x8, addend: 0x0, symName: __ZNKSt3__19basic_iosIcNS_11char_traitsIcEEEcvbB7v160006Ev, symObjAddr: 0x1058, symBinAddr: 0x100003808, symSize: 0x2C }
  - { offsetInCU: 0x19D40, offset: 0x19D40, size: 0x8, addend: 0x0, symName: __ZNKSt3__112basic_stringIcNS_11char_traitsIcEENS_9allocatorIcEEE17find_first_not_ofB7v160006EPKcm, symObjAddr: 0x1084, symBinAddr: 0x100003834, symSize: 0x74 }
  - { offsetInCU: 0x19D86, offset: 0x19D86, size: 0x8, addend: 0x0, symName: __ZNKSt3__112basic_stringIcNS_11char_traitsIcEENS_9allocatorIcEEE4findB7v160006EPKcm, symObjAddr: 0x10F8, symBinAddr: 0x1000038A8, symSize: 0x74 }
  - { offsetInCU: 0x19DCC, offset: 0x19DCC, size: 0x8, addend: 0x0, symName: __ZNSt3__16vectorINS_12basic_stringIcNS_11char_traitsIcEENS_9allocatorIcEEEENS4_IS6_EEE9push_backB7v160006EOS6_, symObjAddr: 0x116C, symBinAddr: 0x10000391C, symSize: 0x6C }
  - { offsetInCU: 0x19E03, offset: 0x19E03, size: 0x8, addend: 0x0, symName: __ZNKSt3__112basic_stringIcNS_11char_traitsIcEENS_9allocatorIcEEE6substrB7v160006Emm, symObjAddr: 0x11D8, symBinAddr: 0x100003988, symSize: 0x68 }
  - { offsetInCU: 0x19E47, offset: 0x19E47, size: 0x8, addend: 0x0, symName: __ZN4nodeC1Ev, symObjAddr: 0x1240, symBinAddr: 0x1000039F0, symSize: 0x2C }
  - { offsetInCU: 0x19E73, offset: 0x19E73, size: 0x8, addend: 0x0, symName: __ZNSt3__16vectorINS_12basic_stringIcNS_11char_traitsIcEENS_9allocatorIcEEEENS4_IS6_EEEixB7v160006Em, symObjAddr: 0x1318, symBinAddr: 0x100003AC8, symSize: 0x2C }
  - { offsetInCU: 0x19EAA, offset: 0x19EAA, size: 0x8, addend: 0x0, symName: __ZNSt3__13mapINS_12basic_stringIcNS_11char_traitsIcEENS_9allocatorIcEEEEP4nodeNS_4lessIS6_EENS4_INS_4pairIKS6_S8_EEEEE4findB7v160006ERSC_, symObjAddr: 0x1344, symBinAddr: 0x100003AF4, symSize: 0x40 }
  - { offsetInCU: 0x19EDF, offset: 0x19EDF, size: 0x8, addend: 0x0, symName: __ZNKSt3__114__map_iteratorINS_15__tree_iteratorINS_12__value_typeINS_12basic_stringIcNS_11char_traitsIcEENS_9allocatorIcEEEEP4nodeEEPNS_11__tree_nodeISB_PvEElEEEptB7v160006Ev, symObjAddr: 0x1384, symBinAddr: 0x100003B34, symSize: 0x2C }
  - { offsetInCU: 0x19F05, offset: 0x19F05, size: 0x8, addend: 0x0, symName: __ZNSt3__114basic_ifstreamIcNS_11char_traitsIcEEE5closeEv, symObjAddr: 0x13B0, symBinAddr: 0x100003B60, symSize: 0x58 }
  - { offsetInCU: 0x19F2D, offset: 0x19F2D, size: 0x8, addend: 0x0, symName: __ZNSt3__13mapINS_12basic_stringIcNS_11char_traitsIcEENS_9allocatorIcEEEEP4nodeNS_4lessIS6_EENS4_INS_4pairIKS6_S8_EEEEE5beginB7v160006Ev, symObjAddr: 0x1408, symBinAddr: 0x100003BB8, symSize: 0x38 }
  - { offsetInCU: 0x19F53, offset: 0x19F53, size: 0x8, addend: 0x0, symName: __ZNSt3__13mapINS_12basic_stringIcNS_11char_traitsIcEENS_9allocatorIcEEEEP4nodeNS_4lessIS6_EENS4_INS_4pairIKS6_S8_EEEEE3endB7v160006Ev, symObjAddr: 0x1440, symBinAddr: 0x100003BF0, symSize: 0x38 }
  - { offsetInCU: 0x19F79, offset: 0x19F79, size: 0x8, addend: 0x0, symName: __ZNKSt3__114__map_iteratorINS_15__tree_iteratorINS_12__value_typeINS_12basic_stringIcNS_11char_traitsIcEENS_9allocatorIcEEEEP4nodeEEPNS_11__tree_nodeISB_PvEElEEEdeB7v160006Ev, symObjAddr: 0x14A8, symBinAddr: 0x100003C58, symSize: 0x28 }
  - { offsetInCU: 0x19F9F, offset: 0x19F9F, size: 0x8, addend: 0x0, symName: __ZNSt3__14pairIKNS_12basic_stringIcNS_11char_traitsIcEENS_9allocatorIcEEEEP4nodeEC1ERKSA_, symObjAddr: 0x14D0, symBinAddr: 0x100003C80, symSize: 0x34 }
  - { offsetInCU: 0x19FD4, offset: 0x19FD4, size: 0x8, addend: 0x0, symName: __ZNSt3__14pairIKNS_12basic_stringIcNS_11char_traitsIcEENS_9allocatorIcEEEEP4nodeED1Ev, symObjAddr: 0x1504, symBinAddr: 0x100003CB4, symSize: 0x2C }
  - { offsetInCU: 0x1A000, offset: 0x1A000, size: 0x8, addend: 0x0, symName: __ZNSt3__114__map_iteratorINS_15__tree_iteratorINS_12__value_typeINS_12basic_stringIcNS_11char_traitsIcEENS_9allocatorIcEEEEP4nodeEEPNS_11__tree_nodeISB_PvEElEEEppB7v160006Ev, symObjAddr: 0x1530, symBinAddr: 0x100003CE0, symSize: 0x2C }
  - { offsetInCU: 0x1A02B, offset: 0x1A02B, size: 0x8, addend: 0x0, symName: __ZNSt3__114basic_ifstreamIcNS_11char_traitsIcEEED1Ev, symObjAddr: 0x15DC, symBinAddr: 0x100003D8C, symSize: 0x40 }
  - { offsetInCU: 0x1A058, offset: 0x1A058, size: 0x8, addend: 0x0, symName: __ZN4nodeC2ERKS_, symObjAddr: 0x161C, symBinAddr: 0x100003DCC, symSize: 0x48 }
  - { offsetInCU: 0x1A08D, offset: 0x1A08D, size: 0x8, addend: 0x0, symName: __ZN4nodeD2Ev, symObjAddr: 0x1664, symBinAddr: 0x100003E14, symSize: 0x2C }
  - { offsetInCU: 0x1A0B9, offset: 0x1A0B9, size: 0x8, addend: 0x0, symName: __ZN4nodeC2Ev, symObjAddr: 0x1690, symBinAddr: 0x100003E40, symSize: 0x2C }
  - { offsetInCU: 0x1A0E5, offset: 0x1A0E5, size: 0x8, addend: 0x0, symName: __ZNSt3__14pairIKNS_12basic_stringIcNS_11char_traitsIcEENS_9allocatorIcEEEEP4nodeEC2ERKSA_, symObjAddr: 0x16BC, symBinAddr: 0x100003E6C, symSize: 0x40 }
  - { offsetInCU: 0x1A11A, offset: 0x1A11A, size: 0x8, addend: 0x0, symName: __ZNSt3__14pairIKNS_12basic_stringIcNS_11char_traitsIcEENS_9allocatorIcEEEEP4nodeED2Ev, symObjAddr: 0x16FC, symBinAddr: 0x100003EAC, symSize: 0x2C }
  - { offsetInCU: 0x1A146, offset: 0x1A146, size: 0x8, addend: 0x0, symName: __ZNSt3__114basic_ifstreamIcNS_11char_traitsIcEEED2Ev, symObjAddr: 0x1728, symBinAddr: 0x100003ED8, symSize: 0x64 }
  - { offsetInCU: 0x1A180, offset: 0x1A180, size: 0x8, addend: 0x0, symName: __ZTv0_n24_NSt3__114basic_ifstreamIcNS_11char_traitsIcEEED1Ev, symObjAddr: 0x178C, symBinAddr: 0x100003F3C, symSize: 0x28 }
  - { offsetInCU: 0x1A197, offset: 0x1A197, size: 0x8, addend: 0x0, symName: __ZNSt3__112basic_stringIcNS_11char_traitsIcEENS_9allocatorIcEEEC2B7v160006Ev, symObjAddr: 0x17B4, symBinAddr: 0x100003F64, symSize: 0x54 }
  - { offsetInCU: 0x1A1C7, offset: 0x1A1C7, size: 0x8, addend: 0x0, symName: __ZNSt3__117__compressed_pairINS_12basic_stringIcNS_11char_traitsIcEENS_9allocatorIcEEE5__repES5_EC1B7v160006INS_18__default_init_tagESA_EEOT_OT0_, symObjAddr: 0x1808, symBinAddr: 0x100003FB8, symSize: 0x3C }
  - { offsetInCU: 0x1A21F, offset: 0x1A21F, size: 0x8, addend: 0x0, symName: __ZNSt3__112basic_stringIcNS_11char_traitsIcEENS_9allocatorIcEEE14__default_initB7v160006Ev, symObjAddr: 0x1860, symBinAddr: 0x100004010, symSize: 0x40 }
  - { offsetInCU: 0x1A245, offset: 0x1A245, size: 0x8, addend: 0x0, symName: __ZNSt3__117__compressed_pairINS_12basic_stringIcNS_11char_traitsIcEENS_9allocatorIcEEE5__repES5_EC2B7v160006INS_18__default_init_tagESA_EEOT_OT0_, symObjAddr: 0x18A0, symBinAddr: 0x100004050, symSize: 0x3C }
  - { offsetInCU: 0x1A29D, offset: 0x1A29D, size: 0x8, addend: 0x0, symName: __ZNSt3__122__compressed_pair_elemINS_12basic_stringIcNS_11char_traitsIcEENS_9allocatorIcEEE5__repELi0ELb0EEC2B7v160006ENS_18__default_init_tagE, symObjAddr: 0x18DC, symBinAddr: 0x10000408C, symSize: 0x14 }
  - { offsetInCU: 0x1A2D2, offset: 0x1A2D2, size: 0x8, addend: 0x0, symName: __ZNSt3__122__compressed_pair_elemINS_9allocatorIcEELi1ELb1EEC2B7v160006ENS_18__default_init_tagE, symObjAddr: 0x18F0, symBinAddr: 0x1000040A0, symSize: 0x2C }
  - { offsetInCU: 0x1A307, offset: 0x1A307, size: 0x8, addend: 0x0, symName: __ZNSt3__19allocatorIcEC2B7v160006Ev, symObjAddr: 0x191C, symBinAddr: 0x1000040CC, symSize: 0x2C }
  - { offsetInCU: 0x1A331, offset: 0x1A331, size: 0x8, addend: 0x0, symName: __ZNSt3__116__non_trivial_ifILb1ENS_9allocatorIcEEEC2B7v160006Ev, symObjAddr: 0x1948, symBinAddr: 0x1000040F8, symSize: 0x14 }
  - { offsetInCU: 0x1A35B, offset: 0x1A35B, size: 0x8, addend: 0x0, symName: __ZNSt3__117__compressed_pairINS_12basic_stringIcNS_11char_traitsIcEENS_9allocatorIcEEE5__repES5_E5firstB7v160006Ev, symObjAddr: 0x195C, symBinAddr: 0x10000410C, symSize: 0x24 }
  - { offsetInCU: 0x1A381, offset: 0x1A381, size: 0x8, addend: 0x0, symName: __ZNSt3__122__compressed_pair_elemINS_12basic_stringIcNS_11char_traitsIcEENS_9allocatorIcEEE5__repELi0ELb0EE5__getB7v160006Ev, symObjAddr: 0x1980, symBinAddr: 0x100004130, symSize: 0x14 }
  - { offsetInCU: 0x1A3A7, offset: 0x1A3A7, size: 0x8, addend: 0x0, symName: __ZNSt3__112basic_stringIcNS_11char_traitsIcEENS_9allocatorIcEEE13__move_assignB7v160006ERS5_NS_17integral_constantIbLb1EEE, symObjAddr: 0x1994, symBinAddr: 0x100004144, symSize: 0xC8 }
  - { offsetInCU: 0x1A3EA, offset: 0x1A3EA, size: 0x8, addend: 0x0, symName: __ZNKSt3__112basic_stringIcNS_11char_traitsIcEENS_9allocatorIcEEE9__is_longB7v160006Ev, symObjAddr: 0x1A5C, symBinAddr: 0x10000420C, symSize: 0x38 }
  - { offsetInCU: 0x1A410, offset: 0x1A410, size: 0x8, addend: 0x0, symName: __ZNSt3__116allocator_traitsINS_9allocatorIcEEE10deallocateB7v160006ERS2_Pcm, symObjAddr: 0x1A94, symBinAddr: 0x100004244, symSize: 0x34 }
  - { offsetInCU: 0x1A452, offset: 0x1A452, size: 0x8, addend: 0x0, symName: __ZNSt3__112basic_stringIcNS_11char_traitsIcEENS_9allocatorIcEEE7__allocB7v160006Ev, symObjAddr: 0x1AC8, symBinAddr: 0x100004278, symSize: 0x24 }
  - { offsetInCU: 0x1A478, offset: 0x1A478, size: 0x8, addend: 0x0, symName: __ZNSt3__112basic_stringIcNS_11char_traitsIcEENS_9allocatorIcEEE18__get_long_pointerB7v160006Ev, symObjAddr: 0x1AEC, symBinAddr: 0x10000429C, symSize: 0x28 }
  - { offsetInCU: 0x1A49E, offset: 0x1A49E, size: 0x8, addend: 0x0, symName: __ZNKSt3__112basic_stringIcNS_11char_traitsIcEENS_9allocatorIcEEE14__get_long_capB7v160006Ev, symObjAddr: 0x1B14, symBinAddr: 0x1000042C4, symSize: 0x30 }
  - { offsetInCU: 0x1A4C4, offset: 0x1A4C4, size: 0x8, addend: 0x0, symName: __ZNSt3__112basic_stringIcNS_11char_traitsIcEENS_9allocatorIcEEE19__move_assign_allocB7v160006ERS5_, symObjAddr: 0x1B44, symBinAddr: 0x1000042F4, symSize: 0x2C }
  - { offsetInCU: 0x1A4F9, offset: 0x1A4F9, size: 0x8, addend: 0x0, symName: __ZNSt3__112basic_stringIcNS_11char_traitsIcEENS_9allocatorIcEEE16__set_short_sizeB7v160006Em, symObjAddr: 0x1B70, symBinAddr: 0x100004320, symSize: 0x78 }
  - { offsetInCU: 0x1A52E, offset: 0x1A52E, size: 0x8, addend: 0x0, symName: __ZNSt3__111char_traitsIcE6assignERcRKc, symObjAddr: 0x1BE8, symBinAddr: 0x100004398, symSize: 0x24 }
  - { offsetInCU: 0x1A55F, offset: 0x1A55F, size: 0x8, addend: 0x0, symName: __ZNSt3__112basic_stringIcNS_11char_traitsIcEENS_9allocatorIcEEE19__get_short_pointerB7v160006Ev, symObjAddr: 0x1C0C, symBinAddr: 0x1000043BC, symSize: 0x28 }
  - { offsetInCU: 0x1A585, offset: 0x1A585, size: 0x8, addend: 0x0, symName: __ZNKSt3__117__compressed_pairINS_12basic_stringIcNS_11char_traitsIcEENS_9allocatorIcEEE5__repES5_E5firstB7v160006Ev, symObjAddr: 0x1C34, symBinAddr: 0x1000043E4, symSize: 0x24 }
  - { offsetInCU: 0x1A5AB, offset: 0x1A5AB, size: 0x8, addend: 0x0, symName: __ZNKSt3__122__compressed_pair_elemINS_12basic_stringIcNS_11char_traitsIcEENS_9allocatorIcEEE5__repELi0ELb0EE5__getB7v160006Ev, symObjAddr: 0x1C58, symBinAddr: 0x100004408, symSize: 0x14 }
  - { offsetInCU: 0x1A5D1, offset: 0x1A5D1, size: 0x8, addend: 0x0, symName: __ZNSt3__19allocatorIcE10deallocateB7v160006EPcm, symObjAddr: 0x1C6C, symBinAddr: 0x10000441C, symSize: 0x40 }
  - { offsetInCU: 0x1A613, offset: 0x1A613, size: 0x8, addend: 0x0, symName: __ZNSt3__117__compressed_pairINS_12basic_stringIcNS_11char_traitsIcEENS_9allocatorIcEEE5__repES5_E6secondB7v160006Ev, symObjAddr: 0x1DD4, symBinAddr: 0x100004584, symSize: 0x24 }
  - { offsetInCU: 0x1A639, offset: 0x1A639, size: 0x8, addend: 0x0, symName: __ZNSt3__122__compressed_pair_elemINS_9allocatorIcEELi1ELb1EE5__getB7v160006Ev, symObjAddr: 0x1DF8, symBinAddr: 0x1000045A8, symSize: 0x14 }
  - { offsetInCU: 0x1A65F, offset: 0x1A65F, size: 0x8, addend: 0x0, symName: __ZNSt3__112basic_stringIcNS_11char_traitsIcEENS_9allocatorIcEEE19__move_assign_allocB7v160006ERS5_NS_17integral_constantIbLb1EEE, symObjAddr: 0x1E0C, symBinAddr: 0x1000045BC, symSize: 0x38 }
  - { offsetInCU: 0x1A6A0, offset: 0x1A6A0, size: 0x8, addend: 0x0, symName: __ZNSt3__114pointer_traitsIPcE10pointer_toB7v160006ERc, symObjAddr: 0x1E44, symBinAddr: 0x1000045F4, symSize: 0x14 }
  - { offsetInCU: 0x1A6C3, offset: 0x1A6C3, size: 0x8, addend: 0x0, symName: __ZNSt3__13mapINS_12basic_stringIcNS_11char_traitsIcEENS_9allocatorIcEEEEP4nodeNS_4lessIS6_EENS4_INS_4pairIKS6_S8_EEEEEC2B7v160006Ev, symObjAddr: 0x1E58, symBinAddr: 0x100004608, symSize: 0x40 }
  - { offsetInCU: 0x1A6ED, offset: 0x1A6ED, size: 0x8, addend: 0x0, symName: __ZNSt3__119__map_value_compareINS_12basic_stringIcNS_11char_traitsIcEENS_9allocatorIcEEEENS_12__value_typeIS6_P4nodeEENS_4lessIS6_EELb1EEC1B7v160006ESC_, symObjAddr: 0x1E98, symBinAddr: 0x100004648, symSize: 0x2C }
  - { offsetInCU: 0x1A726, offset: 0x1A726, size: 0x8, addend: 0x0, symName: __ZNSt3__16__treeINS_12__value_typeINS_12basic_stringIcNS_11char_traitsIcEENS_9allocatorIcEEEEP4nodeEENS_19__map_value_compareIS7_SA_NS_4lessIS7_EELb1EEENS5_ISA_EEEC1ERKSE_, symObjAddr: 0x1EC4, symBinAddr: 0x100004674, symSize: 0x34 }
  - { offsetInCU: 0x1A761, offset: 0x1A761, size: 0x8, addend: 0x0, symName: __ZNSt3__119__map_value_compareINS_12basic_stringIcNS_11char_traitsIcEENS_9allocatorIcEEEENS_12__value_typeIS6_P4nodeEENS_4lessIS6_EELb1EEC2B7v160006ESC_, symObjAddr: 0x1EF8, symBinAddr: 0x1000046A8, symSize: 0x14 }
  - { offsetInCU: 0x1A79A, offset: 0x1A79A, size: 0x8, addend: 0x0, symName: __ZNSt3__16__treeINS_12__value_typeINS_12basic_stringIcNS_11char_traitsIcEENS_9allocatorIcEEEEP4nodeEENS_19__map_value_compareIS7_SA_NS_4lessIS7_EELb1EEENS5_ISA_EEEC2ERKSE_, symObjAddr: 0x1F0C, symBinAddr: 0x1000046BC, symSize: 0x7C }
  - { offsetInCU: 0x1A7D5, offset: 0x1A7D5, size: 0x8, addend: 0x0, symName: __ZNSt3__117__compressed_pairINS_15__tree_end_nodeIPNS_16__tree_node_baseIPvEEEENS_9allocatorINS_11__tree_nodeINS_12__value_typeINS_12basic_stringIcNS_11char_traitsIcEENS7_IcEEEEP4nodeEES3_EEEEEC1B7v160006ILb1EvEEv, symObjAddr: 0x1F88, symBinAddr: 0x100004738, symSize: 0x2C }
  - { offsetInCU: 0x1A810, offset: 0x1A810, size: 0x8, addend: 0x0, symName: __ZNSt3__117__compressed_pairImNS_19__map_value_compareINS_12basic_stringIcNS_11char_traitsIcEENS_9allocatorIcEEEENS_12__value_typeIS7_P4nodeEENS_4lessIS7_EELb1EEEEC1B7v160006IiRKSE_EEOT_OT0_, symObjAddr: 0x1FB4, symBinAddr: 0x100004764, symSize: 0x3C }
  - { offsetInCU: 0x1A868, offset: 0x1A868, size: 0x8, addend: 0x0, symName: __ZNSt3__16__treeINS_12__value_typeINS_12basic_stringIcNS_11char_traitsIcEENS_9allocatorIcEEEEP4nodeEENS_19__map_value_compareIS7_SA_NS_4lessIS7_EELb1EEENS5_ISA_EEE10__end_nodeB7v160006Ev, symObjAddr: 0x1FF0, symBinAddr: 0x1000047A0, symSize: 0x2C }
  - { offsetInCU: 0x1A88E, offset: 0x1A88E, size: 0x8, addend: 0x0, symName: __ZNSt3__16__treeINS_12__value_typeINS_12basic_stringIcNS_11char_traitsIcEENS_9allocatorIcEEEEP4nodeEENS_19__map_value_compareIS7_SA_NS_4lessIS7_EELb1EEENS5_ISA_EEE12__begin_nodeB7v160006Ev, symObjAddr: 0x201C, symBinAddr: 0x1000047CC, symSize: 0x14 }
  - { offsetInCU: 0x1A8B4, offset: 0x1A8B4, size: 0x8, addend: 0x0, symName: __ZNSt3__117__compressed_pairINS_15__tree_end_nodeIPNS_16__tree_node_baseIPvEEEENS_9allocatorINS_11__tree_nodeINS_12__value_typeINS_12basic_stringIcNS_11char_traitsIcEENS7_IcEEEEP4nodeEES3_EEEEEC2B7v160006ILb1EvEEv, symObjAddr: 0x2030, symBinAddr: 0x1000047E0, symSize: 0x34 }
  - { offsetInCU: 0x1A8E9, offset: 0x1A8E9, size: 0x8, addend: 0x0, symName: __ZNSt3__122__compressed_pair_elemINS_15__tree_end_nodeIPNS_16__tree_node_baseIPvEEEELi0ELb0EEC2B7v160006ENS_16__value_init_tagE, symObjAddr: 0x2064, symBinAddr: 0x100004814, symSize: 0x2C }
  - { offsetInCU: 0x1A91E, offset: 0x1A91E, size: 0x8, addend: 0x0, symName: __ZNSt3__122__compressed_pair_elemINS_9allocatorINS_11__tree_nodeINS_12__value_typeINS_12basic_stringIcNS_11char_traitsIcEENS1_IcEEEEP4nodeEEPvEEEELi1ELb1EEC2B7v160006ENS_16__value_init_tagE, symObjAddr: 0x2090, symBinAddr: 0x100004840, symSize: 0x2C }
  - { offsetInCU: 0x1A953, offset: 0x1A953, size: 0x8, addend: 0x0, symName: __ZNSt3__115__tree_end_nodeIPNS_16__tree_node_baseIPvEEEC1B7v160006Ev, symObjAddr: 0x20BC, symBinAddr: 0x10000486C, symSize: 0x2C }
  - { offsetInCU: 0x1A97D, offset: 0x1A97D, size: 0x8, addend: 0x0, symName: __ZNSt3__115__tree_end_nodeIPNS_16__tree_node_baseIPvEEEC2B7v160006Ev, symObjAddr: 0x20E8, symBinAddr: 0x100004898, symSize: 0x18 }
  - { offsetInCU: 0x1A9A7, offset: 0x1A9A7, size: 0x8, addend: 0x0, symName: __ZNSt3__19allocatorINS_11__tree_nodeINS_12__value_typeINS_12basic_stringIcNS_11char_traitsIcEENS0_IcEEEEP4nodeEEPvEEEC2B7v160006Ev, symObjAddr: 0x2100, symBinAddr: 0x1000048B0, symSize: 0x2C }
  - { offsetInCU: 0x1A9D1, offset: 0x1A9D1, size: 0x8, addend: 0x0, symName: __ZNSt3__116__non_trivial_ifILb1ENS_9allocatorINS_11__tree_nodeINS_12__value_typeINS_12basic_stringIcNS_11char_traitsIcEENS1_IcEEEEP4nodeEEPvEEEEEC2B7v160006Ev, symObjAddr: 0x212C, symBinAddr: 0x1000048DC, symSize: 0x14 }
  - { offsetInCU: 0x1A9FB, offset: 0x1A9FB, size: 0x8, addend: 0x0, symName: __ZNSt3__117__compressed_pairImNS_19__map_value_compareINS_12basic_stringIcNS_11char_traitsIcEENS_9allocatorIcEEEENS_12__value_typeIS7_P4nodeEENS_4lessIS7_EELb1EEEEC2B7v160006IiRKSE_EEOT_OT0_, symObjAddr: 0x2140, symBinAddr: 0x1000048F0, symSize: 0x44 }
  - { offsetInCU: 0x1AA53, offset: 0x1AA53, size: 0x8, addend: 0x0, symName: __ZNSt3__122__compressed_pair_elemImLi0ELb0EEC2B7v160006IivEEOT_, symObjAddr: 0x2184, symBinAddr: 0x100004934, symSize: 0x24 }
  - { offsetInCU: 0x1AA95, offset: 0x1AA95, size: 0x8, addend: 0x0, symName: __ZNSt3__122__compressed_pair_elemINS_19__map_value_compareINS_12basic_stringIcNS_11char_traitsIcEENS_9allocatorIcEEEENS_12__value_typeIS7_P4nodeEENS_4lessIS7_EELb1EEELi1ELb1EEC2B7v160006IRKSE_vEEOT_, symObjAddr: 0x21A8, symBinAddr: 0x100004958, symSize: 0x18 }
  - { offsetInCU: 0x1AAD7, offset: 0x1AAD7, size: 0x8, addend: 0x0, symName: __ZNSt3__114pointer_traitsIPNS_15__tree_end_nodeIPNS_16__tree_node_baseIPvEEEEE10pointer_toB7v160006ERS6_, symObjAddr: 0x21C0, symBinAddr: 0x100004970, symSize: 0x14 }
  - { offsetInCU: 0x1AAFA, offset: 0x1AAFA, size: 0x8, addend: 0x0, symName: __ZNSt3__117__compressed_pairINS_15__tree_end_nodeIPNS_16__tree_node_baseIPvEEEENS_9allocatorINS_11__tree_nodeINS_12__value_typeINS_12basic_stringIcNS_11char_traitsIcEENS7_IcEEEEP4nodeEES3_EEEEE5firstB7v160006Ev, symObjAddr: 0x21D4, symBinAddr: 0x100004984, symSize: 0x24 }
  - { offsetInCU: 0x1AB20, offset: 0x1AB20, size: 0x8, addend: 0x0, symName: __ZNSt3__122__compressed_pair_elemINS_15__tree_end_nodeIPNS_16__tree_node_baseIPvEEEELi0ELb0EE5__getB7v160006Ev, symObjAddr: 0x21F8, symBinAddr: 0x1000049A8, symSize: 0x14 }
  - { offsetInCU: 0x1AB46, offset: 0x1AB46, size: 0x8, addend: 0x0, symName: __ZNSt3__13mapINS_12basic_stringIcNS_11char_traitsIcEENS_9allocatorIcEEEEP4nodeNS_4lessIS6_EENS4_INS_4pairIKS6_S8_EEEEED2B7v160006Ev, symObjAddr: 0x220C, symBinAddr: 0x1000049BC, symSize: 0x2C }
  - { offsetInCU: 0x1AB70, offset: 0x1AB70, size: 0x8, addend: 0x0, symName: __ZNSt3__16__treeINS_12__value_typeINS_12basic_stringIcNS_11char_traitsIcEENS_9allocatorIcEEEEP4nodeEENS_19__map_value_compareIS7_SA_NS_4lessIS7_EELb1EEENS5_ISA_EEED1Ev, symObjAddr: 0x2238, symBinAddr: 0x1000049E8, symSize: 0x2C }
  - { offsetInCU: 0x1AB9C, offset: 0x1AB9C, size: 0x8, addend: 0x0, symName: __ZNSt3__16__treeINS_12__value_typeINS_12basic_stringIcNS_11char_traitsIcEENS_9allocatorIcEEEEP4nodeEENS_19__map_value_compareIS7_SA_NS_4lessIS7_EELb1EEENS5_ISA_EEED2Ev, symObjAddr: 0x2264, symBinAddr: 0x100004A14, symSize: 0x38 }
  - { offsetInCU: 0x1ABC8, offset: 0x1ABC8, size: 0x8, addend: 0x0, symName: __ZNSt3__16__treeINS_12__value_typeINS_12basic_stringIcNS_11char_traitsIcEENS_9allocatorIcEEEEP4nodeEENS_19__map_value_compareIS7_SA_NS_4lessIS7_EELb1EEENS5_ISA_EEE7destroyEPNS_11__tree_nodeISA_PvEE, symObjAddr: 0x229C, symBinAddr: 0x100004A4C, symSize: 0xAC }
  - { offsetInCU: 0x1AC14, offset: 0x1AC14, size: 0x8, addend: 0x0, symName: __ZNKSt3__16__treeINS_12__value_typeINS_12basic_stringIcNS_11char_traitsIcEENS_9allocatorIcEEEEP4nodeEENS_19__map_value_compareIS7_SA_NS_4lessIS7_EELb1EEENS5_ISA_EEE6__rootB7v160006Ev, symObjAddr: 0x2348, symBinAddr: 0x100004AF8, symSize: 0x28 }
  - { offsetInCU: 0x1AC3A, offset: 0x1AC3A, size: 0x8, addend: 0x0, symName: __ZNSt3__16__treeINS_12__value_typeINS_12basic_stringIcNS_11char_traitsIcEENS_9allocatorIcEEEEP4nodeEENS_19__map_value_compareIS7_SA_NS_4lessIS7_EELb1EEENS5_ISA_EEE12__node_allocB7v160006Ev, symObjAddr: 0x2370, symBinAddr: 0x100004B20, symSize: 0x28 }
  - { offsetInCU: 0x1AC60, offset: 0x1AC60, size: 0x8, addend: 0x0, symName: __ZNSt3__116allocator_traitsINS_9allocatorINS_11__tree_nodeINS_12__value_typeINS_12basic_stringIcNS_11char_traitsIcEENS1_IcEEEEP4nodeEEPvEEEEE7destroyB7v160006INS_4pairIKS8_SA_EEvvEEvRSE_PT_, symObjAddr: 0x2398, symBinAddr: 0x100004B48, symSize: 0x28 }
  - { offsetInCU: 0x1AC9B, offset: 0x1AC9B, size: 0x8, addend: 0x0, symName: __ZNSt3__122__tree_key_value_typesINS_12__value_typeINS_12basic_stringIcNS_11char_traitsIcEENS_9allocatorIcEEEEP4nodeEEE9__get_ptrB7v160006ERSA_, symObjAddr: 0x23C0, symBinAddr: 0x100004B70, symSize: 0x24 }
  - { offsetInCU: 0x1ACBF, offset: 0x1ACBF, size: 0x8, addend: 0x0, symName: __ZNSt3__116allocator_traitsINS_9allocatorINS_11__tree_nodeINS_12__value_typeINS_12basic_stringIcNS_11char_traitsIcEENS1_IcEEEEP4nodeEEPvEEEEE10deallocateB7v160006ERSE_PSD_m, symObjAddr: 0x23E4, symBinAddr: 0x100004B94, symSize: 0x34 }
  - { offsetInCU: 0x1AD01, offset: 0x1AD01, size: 0x8, addend: 0x0, symName: __ZNSt3__117__compressed_pairINS_15__tree_end_nodeIPNS_16__tree_node_baseIPvEEEENS_9allocatorINS_11__tree_nodeINS_12__value_typeINS_12basic_stringIcNS_11char_traitsIcEENS7_IcEEEEP4nodeEES3_EEEEE6secondB7v160006Ev, symObjAddr: 0x2418, symBinAddr: 0x100004BC8, symSize: 0x24 }
  - { offsetInCU: 0x1AD27, offset: 0x1AD27, size: 0x8, addend: 0x0, symName: __ZNSt3__122__compressed_pair_elemINS_9allocatorINS_11__tree_nodeINS_12__value_typeINS_12basic_stringIcNS_11char_traitsIcEENS1_IcEEEEP4nodeEEPvEEEELi1ELb1EE5__getB7v160006Ev, symObjAddr: 0x243C, symBinAddr: 0x100004BEC, symSize: 0x14 }
  - { offsetInCU: 0x1AD4D, offset: 0x1AD4D, size: 0x8, addend: 0x0, symName: __ZNSt3__112__value_typeINS_12basic_stringIcNS_11char_traitsIcEENS_9allocatorIcEEEEP4nodeE11__get_valueB7v160006Ev, symObjAddr: 0x2450, symBinAddr: 0x100004C00, symSize: 0x24 }
  - { offsetInCU: 0x1AD73, offset: 0x1AD73, size: 0x8, addend: 0x0, symName: __ZNSt3__19allocatorINS_11__tree_nodeINS_12__value_typeINS_12basic_stringIcNS_11char_traitsIcEENS0_IcEEEEP4nodeEEPvEEE10deallocateB7v160006EPSC_m, symObjAddr: 0x24AC, symBinAddr: 0x100004C5C, symSize: 0x40 }
  - { offsetInCU: 0x1ADB5, offset: 0x1ADB5, size: 0x8, addend: 0x0, symName: __ZNKSt3__16__treeINS_12__value_typeINS_12basic_stringIcNS_11char_traitsIcEENS_9allocatorIcEEEEP4nodeEENS_19__map_value_compareIS7_SA_NS_4lessIS7_EELb1EEENS5_ISA_EEE10__end_nodeB7v160006Ev, symObjAddr: 0x24EC, symBinAddr: 0x100004C9C, symSize: 0x2C }
  - { offsetInCU: 0x1ADDB, offset: 0x1ADDB, size: 0x8, addend: 0x0, symName: __ZNKSt3__117__compressed_pairINS_15__tree_end_nodeIPNS_16__tree_node_baseIPvEEEENS_9allocatorINS_11__tree_nodeINS_12__value_typeINS_12basic_stringIcNS_11char_traitsIcEENS7_IcEEEEP4nodeEES3_EEEEE5firstB7v160006Ev, symObjAddr: 0x2518, symBinAddr: 0x100004CC8, symSize: 0x24 }
  - { offsetInCU: 0x1AE01, offset: 0x1AE01, size: 0x8, addend: 0x0, symName: __ZNKSt3__122__compressed_pair_elemINS_15__tree_end_nodeIPNS_16__tree_node_baseIPvEEEELi0ELb0EE5__getB7v160006Ev, symObjAddr: 0x253C, symBinAddr: 0x100004CEC, symSize: 0x14 }
  - { offsetInCU: 0x1AE27, offset: 0x1AE27, size: 0x8, addend: 0x0, symName: __ZNSt3__13mapI4nodeS1_NS_4lessIS1_EENS_9allocatorINS_4pairIKS1_S1_EEEEEC2B7v160006Ev, symObjAddr: 0x2550, symBinAddr: 0x100004D00, symSize: 0x40 }
  - { offsetInCU: 0x1AE51, offset: 0x1AE51, size: 0x8, addend: 0x0, symName: __ZNSt3__119__map_value_compareI4nodeNS_12__value_typeIS1_S1_EENS_4lessIS1_EELb1EEC1B7v160006ES5_, symObjAddr: 0x2590, symBinAddr: 0x100004D40, symSize: 0x2C }
  - { offsetInCU: 0x1AE8A, offset: 0x1AE8A, size: 0x8, addend: 0x0, symName: __ZNSt3__16__treeINS_12__value_typeI4nodeS2_EENS_19__map_value_compareIS2_S3_NS_4lessIS2_EELb1EEENS_9allocatorIS3_EEEC1ERKS7_, symObjAddr: 0x25BC, symBinAddr: 0x100004D6C, symSize: 0x34 }
  - { offsetInCU: 0x1AEC5, offset: 0x1AEC5, size: 0x8, addend: 0x0, symName: __ZNSt3__119__map_value_compareI4nodeNS_12__value_typeIS1_S1_EENS_4lessIS1_EELb1EEC2B7v160006ES5_, symObjAddr: 0x25F0, symBinAddr: 0x100004DA0, symSize: 0x14 }
  - { offsetInCU: 0x1AEFE, offset: 0x1AEFE, size: 0x8, addend: 0x0, symName: __ZNSt3__16__treeINS_12__value_typeI4nodeS2_EENS_19__map_value_compareIS2_S3_NS_4lessIS2_EELb1EEENS_9allocatorIS3_EEEC2ERKS7_, symObjAddr: 0x2604, symBinAddr: 0x100004DB4, symSize: 0x7C }
  - { offsetInCU: 0x1AF39, offset: 0x1AF39, size: 0x8, addend: 0x0, symName: __ZNSt3__117__compressed_pairINS_15__tree_end_nodeIPNS_16__tree_node_baseIPvEEEENS_9allocatorINS_11__tree_nodeINS_12__value_typeI4nodeSA_EES3_EEEEEC1B7v160006ILb1EvEEv, symObjAddr: 0x2680, symBinAddr: 0x100004E30, symSize: 0x2C }
  - { offsetInCU: 0x1AF6E, offset: 0x1AF6E, size: 0x8, addend: 0x0, symName: __ZNSt3__117__compressed_pairImNS_19__map_value_compareI4nodeNS_12__value_typeIS2_S2_EENS_4lessIS2_EELb1EEEEC1B7v160006IiRKS7_EEOT_OT0_, symObjAddr: 0x26AC, symBinAddr: 0x100004E5C, symSize: 0x3C }
  - { offsetInCU: 0x1AFC6, offset: 0x1AFC6, size: 0x8, addend: 0x0, symName: __ZNSt3__16__treeINS_12__value_typeI4nodeS2_EENS_19__map_value_compareIS2_S3_NS_4lessIS2_EELb1EEENS_9allocatorIS3_EEE10__end_nodeB7v160006Ev, symObjAddr: 0x26E8, symBinAddr: 0x100004E98, symSize: 0x2C }
  - { offsetInCU: 0x1AFEC, offset: 0x1AFEC, size: 0x8, addend: 0x0, symName: __ZNSt3__16__treeINS_12__value_typeI4nodeS2_EENS_19__map_value_compareIS2_S3_NS_4lessIS2_EELb1EEENS_9allocatorIS3_EEE12__begin_nodeB7v160006Ev, symObjAddr: 0x2714, symBinAddr: 0x100004EC4, symSize: 0x14 }
  - { offsetInCU: 0x1B012, offset: 0x1B012, size: 0x8, addend: 0x0, symName: __ZNSt3__117__compressed_pairINS_15__tree_end_nodeIPNS_16__tree_node_baseIPvEEEENS_9allocatorINS_11__tree_nodeINS_12__value_typeI4nodeSA_EES3_EEEEEC2B7v160006ILb1EvEEv, symObjAddr: 0x2728, symBinAddr: 0x100004ED8, symSize: 0x34 }
  - { offsetInCU: 0x1B047, offset: 0x1B047, size: 0x8, addend: 0x0, symName: __ZNSt3__122__compressed_pair_elemINS_9allocatorINS_11__tree_nodeINS_12__value_typeI4nodeS4_EEPvEEEELi1ELb1EEC2B7v160006ENS_16__value_init_tagE, symObjAddr: 0x275C, symBinAddr: 0x100004F0C, symSize: 0x2C }
  - { offsetInCU: 0x1B07C, offset: 0x1B07C, size: 0x8, addend: 0x0, symName: __ZNSt3__19allocatorINS_11__tree_nodeINS_12__value_typeI4nodeS3_EEPvEEEC2B7v160006Ev, symObjAddr: 0x2788, symBinAddr: 0x100004F38, symSize: 0x2C }
  - { offsetInCU: 0x1B0A6, offset: 0x1B0A6, size: 0x8, addend: 0x0, symName: __ZNSt3__116__non_trivial_ifILb1ENS_9allocatorINS_11__tree_nodeINS_12__value_typeI4nodeS4_EEPvEEEEEC2B7v160006Ev, symObjAddr: 0x27B4, symBinAddr: 0x100004F64, symSize: 0x14 }
  - { offsetInCU: 0x1B0D0, offset: 0x1B0D0, size: 0x8, addend: 0x0, symName: __ZNSt3__117__compressed_pairImNS_19__map_value_compareI4nodeNS_12__value_typeIS2_S2_EENS_4lessIS2_EELb1EEEEC2B7v160006IiRKS7_EEOT_OT0_, symObjAddr: 0x27C8, symBinAddr: 0x100004F78, symSize: 0x44 }
  - { offsetInCU: 0x1B128, offset: 0x1B128, size: 0x8, addend: 0x0, symName: __ZNSt3__122__compressed_pair_elemINS_19__map_value_compareI4nodeNS_12__value_typeIS2_S2_EENS_4lessIS2_EELb1EEELi1ELb1EEC2B7v160006IRKS7_vEEOT_, symObjAddr: 0x280C, symBinAddr: 0x100004FBC, symSize: 0x18 }
  - { offsetInCU: 0x1B16A, offset: 0x1B16A, size: 0x8, addend: 0x0, symName: __ZNSt3__117__compressed_pairINS_15__tree_end_nodeIPNS_16__tree_node_baseIPvEEEENS_9allocatorINS_11__tree_nodeINS_12__value_typeI4nodeSA_EES3_EEEEE5firstB7v160006Ev, symObjAddr: 0x2824, symBinAddr: 0x100004FD4, symSize: 0x24 }
  - { offsetInCU: 0x1B190, offset: 0x1B190, size: 0x8, addend: 0x0, symName: __ZNSt3__13mapI4nodeS1_NS_4lessIS1_EENS_9allocatorINS_4pairIKS1_S1_EEEEED2B7v160006Ev, symObjAddr: 0x2848, symBinAddr: 0x100004FF8, symSize: 0x2C }
  - { offsetInCU: 0x1B1BA, offset: 0x1B1BA, size: 0x8, addend: 0x0, symName: __ZNSt3__16__treeINS_12__value_typeI4nodeS2_EENS_19__map_value_compareIS2_S3_NS_4lessIS2_EELb1EEENS_9allocatorIS3_EEED1Ev, symObjAddr: 0x2874, symBinAddr: 0x100005024, symSize: 0x2C }
  - { offsetInCU: 0x1B1E6, offset: 0x1B1E6, size: 0x8, addend: 0x0, symName: __ZNSt3__16__treeINS_12__value_typeI4nodeS2_EENS_19__map_value_compareIS2_S3_NS_4lessIS2_EELb1EEENS_9allocatorIS3_EEED2Ev, symObjAddr: 0x28A0, symBinAddr: 0x100005050, symSize: 0x38 }
  - { offsetInCU: 0x1B212, offset: 0x1B212, size: 0x8, addend: 0x0, symName: __ZNSt3__16__treeINS_12__value_typeI4nodeS2_EENS_19__map_value_compareIS2_S3_NS_4lessIS2_EELb1EEENS_9allocatorIS3_EEE7destroyEPNS_11__tree_nodeIS3_PvEE, symObjAddr: 0x28D8, symBinAddr: 0x100005088, symSize: 0xAC }
  - { offsetInCU: 0x1B25E, offset: 0x1B25E, size: 0x8, addend: 0x0, symName: __ZNKSt3__16__treeINS_12__value_typeI4nodeS2_EENS_19__map_value_compareIS2_S3_NS_4lessIS2_EELb1EEENS_9allocatorIS3_EEE6__rootB7v160006Ev, symObjAddr: 0x2984, symBinAddr: 0x100005134, symSize: 0x28 }
  - { offsetInCU: 0x1B284, offset: 0x1B284, size: 0x8, addend: 0x0, symName: __ZNSt3__16__treeINS_12__value_typeI4nodeS2_EENS_19__map_value_compareIS2_S3_NS_4lessIS2_EELb1EEENS_9allocatorIS3_EEE12__node_allocB7v160006Ev, symObjAddr: 0x29AC, symBinAddr: 0x10000515C, symSize: 0x28 }
  - { offsetInCU: 0x1B2AF, offset: 0x1B2AF, size: 0x8, addend: 0x0, symName: __ZNSt3__116allocator_traitsINS_9allocatorINS_11__tree_nodeINS_12__value_typeI4nodeS4_EEPvEEEEE7destroyB7v160006INS_4pairIKS4_S4_EEvvEEvRS8_PT_, symObjAddr: 0x29D4, symBinAddr: 0x100005184, symSize: 0x28 }
  - { offsetInCU: 0x1B2EA, offset: 0x1B2EA, size: 0x8, addend: 0x0, symName: __ZNSt3__122__tree_key_value_typesINS_12__value_typeI4nodeS2_EEE9__get_ptrB7v160006ERS3_, symObjAddr: 0x29FC, symBinAddr: 0x1000051AC, symSize: 0x24 }
  - { offsetInCU: 0x1B30E, offset: 0x1B30E, size: 0x8, addend: 0x0, symName: __ZNSt3__116allocator_traitsINS_9allocatorINS_11__tree_nodeINS_12__value_typeI4nodeS4_EEPvEEEEE10deallocateB7v160006ERS8_PS7_m, symObjAddr: 0x2A20, symBinAddr: 0x1000051D0, symSize: 0x34 }
  - { offsetInCU: 0x1B350, offset: 0x1B350, size: 0x8, addend: 0x0, symName: __ZNSt3__117__compressed_pairINS_15__tree_end_nodeIPNS_16__tree_node_baseIPvEEEENS_9allocatorINS_11__tree_nodeINS_12__value_typeI4nodeSA_EES3_EEEEE6secondB7v160006Ev, symObjAddr: 0x2A54, symBinAddr: 0x100005204, symSize: 0x24 }
  - { offsetInCU: 0x1B376, offset: 0x1B376, size: 0x8, addend: 0x0, symName: __ZNSt3__122__compressed_pair_elemINS_9allocatorINS_11__tree_nodeINS_12__value_typeI4nodeS4_EEPvEEEELi1ELb1EE5__getB7v160006Ev, symObjAddr: 0x2A78, symBinAddr: 0x100005228, symSize: 0x14 }
  - { offsetInCU: 0x1B39C, offset: 0x1B39C, size: 0x8, addend: 0x0, symName: __ZNSt3__14pairIK4nodeS1_ED1Ev, symObjAddr: 0x2A8C, symBinAddr: 0x10000523C, symSize: 0x2C }
  - { offsetInCU: 0x1B3C8, offset: 0x1B3C8, size: 0x8, addend: 0x0, symName: __ZNSt3__14pairIK4nodeS1_ED2Ev, symObjAddr: 0x2AB8, symBinAddr: 0x100005268, symSize: 0x38 }
  - { offsetInCU: 0x1B3F4, offset: 0x1B3F4, size: 0x8, addend: 0x0, symName: __ZNSt3__112__value_typeI4nodeS1_E11__get_valueB7v160006Ev, symObjAddr: 0x2AF0, symBinAddr: 0x1000052A0, symSize: 0x24 }
  - { offsetInCU: 0x1B41A, offset: 0x1B41A, size: 0x8, addend: 0x0, symName: __ZNSt3__19allocatorINS_11__tree_nodeINS_12__value_typeI4nodeS3_EEPvEEE10deallocateB7v160006EPS6_m, symObjAddr: 0x2B4C, symBinAddr: 0x1000052FC, symSize: 0x40 }
  - { offsetInCU: 0x1B45C, offset: 0x1B45C, size: 0x8, addend: 0x0, symName: __ZNKSt3__16__treeINS_12__value_typeI4nodeS2_EENS_19__map_value_compareIS2_S3_NS_4lessIS2_EELb1EEENS_9allocatorIS3_EEE10__end_nodeB7v160006Ev, symObjAddr: 0x2B8C, symBinAddr: 0x10000533C, symSize: 0x2C }
  - { offsetInCU: 0x1B482, offset: 0x1B482, size: 0x8, addend: 0x0, symName: __ZNKSt3__117__compressed_pairINS_15__tree_end_nodeIPNS_16__tree_node_baseIPvEEEENS_9allocatorINS_11__tree_nodeINS_12__value_typeI4nodeSA_EES3_EEEEE5firstB7v160006Ev, symObjAddr: 0x2BB8, symBinAddr: 0x100005368, symSize: 0x24 }
  - { offsetInCU: 0x1B4A8, offset: 0x1B4A8, size: 0x8, addend: 0x0, symName: __ZNSt3__16vectorINS_12basic_stringIcNS_11char_traitsIcEENS_9allocatorIcEEEENS4_IS6_EEEC2B7v160006Ev, symObjAddr: 0x2BDC, symBinAddr: 0x10000538C, symSize: 0x58 }
  - { offsetInCU: 0x1B4D8, offset: 0x1B4D8, size: 0x8, addend: 0x0, symName: __ZNSt3__117__compressed_pairIPNS_12basic_stringIcNS_11char_traitsIcEENS_9allocatorIcEEEENS4_IS6_EEEC1B7v160006IDnNS_18__default_init_tagEEEOT_OT0_, symObjAddr: 0x2C34, symBinAddr: 0x1000053E4, symSize: 0x3C }
  - { offsetInCU: 0x1B530, offset: 0x1B530, size: 0x8, addend: 0x0, symName: __ZNSt3__117__compressed_pairIPNS_12basic_stringIcNS_11char_traitsIcEENS_9allocatorIcEEEENS4_IS6_EEEC2B7v160006IDnNS_18__default_init_tagEEEOT_OT0_, symObjAddr: 0x2C80, symBinAddr: 0x100005430, symSize: 0x40 }
  - { offsetInCU: 0x1B588, offset: 0x1B588, size: 0x8, addend: 0x0, symName: __ZNSt3__122__compressed_pair_elemIPNS_12basic_stringIcNS_11char_traitsIcEENS_9allocatorIcEEEELi0ELb0EEC2B7v160006IDnvEEOT_, symObjAddr: 0x2CC0, symBinAddr: 0x100005470, symSize: 0x1C }
  - { offsetInCU: 0x1B5CA, offset: 0x1B5CA, size: 0x8, addend: 0x0, symName: __ZNSt3__122__compressed_pair_elemINS_9allocatorINS_12basic_stringIcNS_11char_traitsIcEENS1_IcEEEEEELi1ELb1EEC2B7v160006ENS_18__default_init_tagE, symObjAddr: 0x2CDC, symBinAddr: 0x10000548C, symSize: 0x2C }
  - { offsetInCU: 0x1B5FF, offset: 0x1B5FF, size: 0x8, addend: 0x0, symName: __ZNSt3__19allocatorINS_12basic_stringIcNS_11char_traitsIcEENS0_IcEEEEEC2B7v160006Ev, symObjAddr: 0x2D08, symBinAddr: 0x1000054B8, symSize: 0x2C }
  - { offsetInCU: 0x1B629, offset: 0x1B629, size: 0x8, addend: 0x0, symName: __ZNSt3__116__non_trivial_ifILb1ENS_9allocatorINS_12basic_stringIcNS_11char_traitsIcEENS1_IcEEEEEEEC2B7v160006Ev, symObjAddr: 0x2D34, symBinAddr: 0x1000054E4, symSize: 0x14 }
  - { offsetInCU: 0x1B653, offset: 0x1B653, size: 0x8, addend: 0x0, symName: __ZNSt3__16vectorINS_12basic_stringIcNS_11char_traitsIcEENS_9allocatorIcEEEENS4_IS6_EEED2B7v160006Ev, symObjAddr: 0x2D48, symBinAddr: 0x1000054F8, symSize: 0x44 }
  - { offsetInCU: 0x1B67D, offset: 0x1B67D, size: 0x8, addend: 0x0, symName: __ZNSt3__16vectorINS_12basic_stringIcNS_11char_traitsIcEENS_9allocatorIcEEEENS4_IS6_EEE16__destroy_vectorC1ERS8_, symObjAddr: 0x2D8C, symBinAddr: 0x10000553C, symSize: 0x34 }
  - { offsetInCU: 0x1B6B6, offset: 0x1B6B6, size: 0x8, addend: 0x0, symName: __ZNSt3__16vectorINS_12basic_stringIcNS_11char_traitsIcEENS_9allocatorIcEEEENS4_IS6_EEE16__destroy_vectorclB7v160006Ev, symObjAddr: 0x2DC0, symBinAddr: 0x100005570, symSize: 0x9C }
  - { offsetInCU: 0x1B6DC, offset: 0x1B6DC, size: 0x8, addend: 0x0, symName: __ZNSt3__16vectorINS_12basic_stringIcNS_11char_traitsIcEENS_9allocatorIcEEEENS4_IS6_EEE16__destroy_vectorC2ERS8_, symObjAddr: 0x2E5C, symBinAddr: 0x10000560C, symSize: 0x20 }
  - { offsetInCU: 0x1B715, offset: 0x1B715, size: 0x8, addend: 0x0, symName: __ZNKSt3__16vectorINS_12basic_stringIcNS_11char_traitsIcEENS_9allocatorIcEEEENS4_IS6_EEE17__annotate_deleteB7v160006Ev, symObjAddr: 0x2E7C, symBinAddr: 0x10000562C, symSize: 0xD4 }
  - { offsetInCU: 0x1B73B, offset: 0x1B73B, size: 0x8, addend: 0x0, symName: __ZNSt3__16vectorINS_12basic_stringIcNS_11char_traitsIcEENS_9allocatorIcEEEENS4_IS6_EEE7__clearB7v160006Ev, symObjAddr: 0x2F60, symBinAddr: 0x100005710, symSize: 0x28 }
  - { offsetInCU: 0x1B761, offset: 0x1B761, size: 0x8, addend: 0x0, symName: __ZNSt3__116allocator_traitsINS_9allocatorINS_12basic_stringIcNS_11char_traitsIcEENS1_IcEEEEEEE10deallocateB7v160006ERS7_PS6_m, symObjAddr: 0x2F88, symBinAddr: 0x100005738, symSize: 0x34 }
  - { offsetInCU: 0x1B7A3, offset: 0x1B7A3, size: 0x8, addend: 0x0, symName: __ZNSt3__16vectorINS_12basic_stringIcNS_11char_traitsIcEENS_9allocatorIcEEEENS4_IS6_EEE7__allocB7v160006Ev, symObjAddr: 0x2FBC, symBinAddr: 0x10000576C, symSize: 0x28 }
  - { offsetInCU: 0x1B7C9, offset: 0x1B7C9, size: 0x8, addend: 0x0, symName: __ZNKSt3__16vectorINS_12basic_stringIcNS_11char_traitsIcEENS_9allocatorIcEEEENS4_IS6_EEE8capacityB7v160006Ev, symObjAddr: 0x2FE4, symBinAddr: 0x100005794, symSize: 0x40 }
  - { offsetInCU: 0x1B7EF, offset: 0x1B7EF, size: 0x8, addend: 0x0, symName: __ZNKSt3__16vectorINS_12basic_stringIcNS_11char_traitsIcEENS_9allocatorIcEEEENS4_IS6_EEE31__annotate_contiguous_containerB7v160006EPKvSA_SA_SA_, symObjAddr: 0x3024, symBinAddr: 0x1000057D4, symSize: 0x20 }
  - { offsetInCU: 0x1B845, offset: 0x1B845, size: 0x8, addend: 0x0, symName: __ZNKSt3__16vectorINS_12basic_stringIcNS_11char_traitsIcEENS_9allocatorIcEEEENS4_IS6_EEE4dataB7v160006Ev, symObjAddr: 0x3044, symBinAddr: 0x1000057F4, symSize: 0x28 }
  - { offsetInCU: 0x1B86B, offset: 0x1B86B, size: 0x8, addend: 0x0, symName: __ZNKSt3__16vectorINS_12basic_stringIcNS_11char_traitsIcEENS_9allocatorIcEEEENS4_IS6_EEE4sizeB7v160006Ev, symObjAddr: 0x306C, symBinAddr: 0x10000581C, symSize: 0x28 }
  - { offsetInCU: 0x1B891, offset: 0x1B891, size: 0x8, addend: 0x0, symName: __ZNSt3__16vectorINS_12basic_stringIcNS_11char_traitsIcEENS_9allocatorIcEEEENS4_IS6_EEE22__base_destruct_at_endB7v160006EPS6_, symObjAddr: 0x30A8, symBinAddr: 0x100005858, symSize: 0x8C }
  - { offsetInCU: 0x1B8D5, offset: 0x1B8D5, size: 0x8, addend: 0x0, symName: __ZNSt3__116allocator_traitsINS_9allocatorINS_12basic_stringIcNS_11char_traitsIcEENS1_IcEEEEEEE7destroyB7v160006IS6_vEEvRS7_PT_, symObjAddr: 0x3134, symBinAddr: 0x1000058E4, symSize: 0x2C }
  - { offsetInCU: 0x1B912, offset: 0x1B912, size: 0x8, addend: 0x0, symName: __ZNSt3__19allocatorINS_12basic_stringIcNS_11char_traitsIcEENS0_IcEEEEE7destroyB7v160006EPS5_, symObjAddr: 0x3160, symBinAddr: 0x100005910, symSize: 0x28 }
  - { offsetInCU: 0x1B946, offset: 0x1B946, size: 0x8, addend: 0x0, symName: __ZNSt3__19allocatorINS_12basic_stringIcNS_11char_traitsIcEENS0_IcEEEEE10deallocateB7v160006EPS5_m, symObjAddr: 0x3188, symBinAddr: 0x100005938, symSize: 0x44 }
  - { offsetInCU: 0x1B988, offset: 0x1B988, size: 0x8, addend: 0x0, symName: __ZNSt3__117__compressed_pairIPNS_12basic_stringIcNS_11char_traitsIcEENS_9allocatorIcEEEENS4_IS6_EEE6secondB7v160006Ev, symObjAddr: 0x31CC, symBinAddr: 0x10000597C, symSize: 0x24 }
  - { offsetInCU: 0x1B9AE, offset: 0x1B9AE, size: 0x8, addend: 0x0, symName: __ZNSt3__122__compressed_pair_elemINS_9allocatorINS_12basic_stringIcNS_11char_traitsIcEENS1_IcEEEEEELi1ELb1EE5__getB7v160006Ev, symObjAddr: 0x31F0, symBinAddr: 0x1000059A0, symSize: 0x14 }
  - { offsetInCU: 0x1B9D4, offset: 0x1B9D4, size: 0x8, addend: 0x0, symName: __ZNKSt3__16vectorINS_12basic_stringIcNS_11char_traitsIcEENS_9allocatorIcEEEENS4_IS6_EEE9__end_capB7v160006Ev, symObjAddr: 0x3204, symBinAddr: 0x1000059B4, symSize: 0x28 }
  - { offsetInCU: 0x1B9FA, offset: 0x1B9FA, size: 0x8, addend: 0x0, symName: __ZNKSt3__117__compressed_pairIPNS_12basic_stringIcNS_11char_traitsIcEENS_9allocatorIcEEEENS4_IS6_EEE5firstB7v160006Ev, symObjAddr: 0x322C, symBinAddr: 0x1000059DC, symSize: 0x24 }
  - { offsetInCU: 0x1BA20, offset: 0x1BA20, size: 0x8, addend: 0x0, symName: __ZNKSt3__122__compressed_pair_elemIPNS_12basic_stringIcNS_11char_traitsIcEENS_9allocatorIcEEEELi0ELb0EE5__getB7v160006Ev, symObjAddr: 0x3250, symBinAddr: 0x100005A00, symSize: 0x14 }
  - { offsetInCU: 0x1BA46, offset: 0x1BA46, size: 0x8, addend: 0x0, symName: __ZNKSt3__112basic_stringIcNS_11char_traitsIcEENS_9allocatorIcEEE4sizeB7v160006Ev, symObjAddr: 0x3264, symBinAddr: 0x100005A14, symSize: 0x54 }
  - { offsetInCU: 0x1BA6C, offset: 0x1BA6C, size: 0x8, addend: 0x0, symName: __ZNSt3__111char_traitsIcE6lengthEPKc, symObjAddr: 0x32B8, symBinAddr: 0x100005A68, symSize: 0x34 }
  - { offsetInCU: 0x1BA99, offset: 0x1BA99, size: 0x8, addend: 0x0, symName: __ZNSt3__116allocator_traitsINS_9allocatorIcEEE37select_on_container_copy_constructionB7v160006IS2_vvEES2_RKS2_, symObjAddr: 0x32EC, symBinAddr: 0x100005A9C, symSize: 0x10 }
  - { offsetInCU: 0x1BAC8, offset: 0x1BAC8, size: 0x8, addend: 0x0, symName: __ZNKSt3__112basic_stringIcNS_11char_traitsIcEENS_9allocatorIcEEE13get_allocatorB7v160006Ev, symObjAddr: 0x32FC, symBinAddr: 0x100005AAC, symSize: 0x24 }
  - { offsetInCU: 0x1BAEE, offset: 0x1BAEE, size: 0x8, addend: 0x0, symName: __ZNSt3__112basic_stringIcNS_11char_traitsIcEENS_9allocatorIcEEEC1B7v160006ENS_24__uninitialized_size_tagEmRKS4_, symObjAddr: 0x3320, symBinAddr: 0x100005AD0, symSize: 0x3C }
  - { offsetInCU: 0x1BB42, offset: 0x1BB42, size: 0x8, addend: 0x0, symName: __ZNSt3__112basic_stringIcNS_11char_traitsIcEENS_9allocatorIcEEE13__get_pointerB7v160006Ev, symObjAddr: 0x3370, symBinAddr: 0x100005B20, symSize: 0x54 }
  - { offsetInCU: 0x1BB68, offset: 0x1BB68, size: 0x8, addend: 0x0, symName: __ZNSt3__111char_traitsIcE4copyEPcPKcm, symObjAddr: 0x33C4, symBinAddr: 0x100005B74, symSize: 0x5C }
  - { offsetInCU: 0x1BBA7, offset: 0x1BBA7, size: 0x8, addend: 0x0, symName: __ZNKSt3__112basic_stringIcNS_11char_traitsIcEENS_9allocatorIcEEE4dataB7v160006Ev, symObjAddr: 0x3420, symBinAddr: 0x100005BD0, symSize: 0x28 }
  - { offsetInCU: 0x1BBCD, offset: 0x1BBCD, size: 0x8, addend: 0x0, symName: __ZNSt3__111char_traitsIcE6assignEPcmc, symObjAddr: 0x3448, symBinAddr: 0x100005BF8, symSize: 0x44 }
  - { offsetInCU: 0x1BC0C, offset: 0x1BC0C, size: 0x8, addend: 0x0, symName: __ZNKSt3__112basic_stringIcNS_11char_traitsIcEENS_9allocatorIcEEE15__get_long_sizeB7v160006Ev, symObjAddr: 0x348C, symBinAddr: 0x100005C3C, symSize: 0x28 }
  - { offsetInCU: 0x1BC32, offset: 0x1BC32, size: 0x8, addend: 0x0, symName: __ZNKSt3__112basic_stringIcNS_11char_traitsIcEENS_9allocatorIcEEE16__get_short_sizeB7v160006Ev, symObjAddr: 0x34B4, symBinAddr: 0x100005C64, symSize: 0x34 }
  - { offsetInCU: 0x1BC58, offset: 0x1BC58, size: 0x8, addend: 0x0, symName: __ZNKSt3__112basic_stringIcNS_11char_traitsIcEENS_9allocatorIcEEE7__allocB7v160006Ev, symObjAddr: 0x350C, symBinAddr: 0x100005CBC, symSize: 0x24 }
  - { offsetInCU: 0x1BC7E, offset: 0x1BC7E, size: 0x8, addend: 0x0, symName: __ZNKSt3__117__compressed_pairINS_12basic_stringIcNS_11char_traitsIcEENS_9allocatorIcEEE5__repES5_E6secondB7v160006Ev, symObjAddr: 0x3530, symBinAddr: 0x100005CE0, symSize: 0x24 }
  - { offsetInCU: 0x1BCA4, offset: 0x1BCA4, size: 0x8, addend: 0x0, symName: __ZNKSt3__122__compressed_pair_elemINS_9allocatorIcEELi1ELb1EE5__getB7v160006Ev, symObjAddr: 0x3554, symBinAddr: 0x100005D04, symSize: 0x14 }
  - { offsetInCU: 0x1BCCA, offset: 0x1BCCA, size: 0x8, addend: 0x0, symName: __ZNSt3__112basic_stringIcNS_11char_traitsIcEENS_9allocatorIcEEEC2B7v160006ENS_24__uninitialized_size_tagEmRKS4_, symObjAddr: 0x3568, symBinAddr: 0x100005D18, symSize: 0x118 }
  - { offsetInCU: 0x1BD4A, offset: 0x1BD4A, size: 0x8, addend: 0x0, symName: __ZNSt3__117__compressed_pairINS_12basic_stringIcNS_11char_traitsIcEENS_9allocatorIcEEE5__repES5_EC1B7v160006INS_18__default_init_tagERKS5_EEOT_OT0_, symObjAddr: 0x3680, symBinAddr: 0x100005E30, symSize: 0x3C }
  - { offsetInCU: 0x1BDA2, offset: 0x1BDA2, size: 0x8, addend: 0x0, symName: __ZNKSt3__112basic_stringIcNS_11char_traitsIcEENS_9allocatorIcEEE8max_sizeB7v160006Ev, symObjAddr: 0x36BC, symBinAddr: 0x100005E6C, symSize: 0xAC }
  - { offsetInCU: 0x1BDF4, offset: 0x1BDF4, size: 0x8, addend: 0x0, symName: __ZNKSt3__112basic_stringIcNS_11char_traitsIcEENS_9allocatorIcEEE20__throw_length_errorB7v160006Ev, symObjAddr: 0x3768, symBinAddr: 0x100005F18, symSize: 0x1C }
  - { offsetInCU: 0x1BE1A, offset: 0x1BE1A, size: 0x8, addend: 0x0, symName: __ZNSt3__112basic_stringIcNS_11char_traitsIcEENS_9allocatorIcEEE13__fits_in_ssoB7v160006Em, symObjAddr: 0x3784, symBinAddr: 0x100005F34, symSize: 0x20 }
  - { offsetInCU: 0x1BE3E, offset: 0x1BE3E, size: 0x8, addend: 0x0, symName: __ZNSt3__112basic_stringIcNS_11char_traitsIcEENS_9allocatorIcEEE11__recommendB7v160006Em, symObjAddr: 0x37A4, symBinAddr: 0x100005F54, symSize: 0x84 }
  - { offsetInCU: 0x1BE71, offset: 0x1BE71, size: 0x8, addend: 0x0, symName: __ZNSt3__116allocator_traitsINS_9allocatorIcEEE8allocateB7v160006ERS2_m, symObjAddr: 0x3828, symBinAddr: 0x100005FD8, symSize: 0x2C }
  - { offsetInCU: 0x1BEA4, offset: 0x1BEA4, size: 0x8, addend: 0x0, symName: __ZNSt3__112basic_stringIcNS_11char_traitsIcEENS_9allocatorIcEEE16__begin_lifetimeB7v160006EPcm, symObjAddr: 0x3854, symBinAddr: 0x100006004, symSize: 0x14 }
  - { offsetInCU: 0x1BED7, offset: 0x1BED7, size: 0x8, addend: 0x0, symName: __ZNSt3__112basic_stringIcNS_11char_traitsIcEENS_9allocatorIcEEE14__set_long_capB7v160006Em, symObjAddr: 0x3868, symBinAddr: 0x100006018, symSize: 0x70 }
  - { offsetInCU: 0x1BF0C, offset: 0x1BF0C, size: 0x8, addend: 0x0, symName: __ZNSt3__112basic_stringIcNS_11char_traitsIcEENS_9allocatorIcEEE18__set_long_pointerB7v160006EPc, symObjAddr: 0x38D8, symBinAddr: 0x100006088, symSize: 0x38 }
  - { offsetInCU: 0x1BF41, offset: 0x1BF41, size: 0x8, addend: 0x0, symName: __ZNSt3__112basic_stringIcNS_11char_traitsIcEENS_9allocatorIcEEE15__set_long_sizeB7v160006Em, symObjAddr: 0x3910, symBinAddr: 0x1000060C0, symSize: 0x38 }
  - { offsetInCU: 0x1BF76, offset: 0x1BF76, size: 0x8, addend: 0x0, symName: __ZNSt3__117__compressed_pairINS_12basic_stringIcNS_11char_traitsIcEENS_9allocatorIcEEE5__repES5_EC2B7v160006INS_18__default_init_tagERKS5_EEOT_OT0_, symObjAddr: 0x3948, symBinAddr: 0x1000060F8, symSize: 0x40 }
  - { offsetInCU: 0x1BFCE, offset: 0x1BFCE, size: 0x8, addend: 0x0, symName: __ZNSt3__122__compressed_pair_elemINS_9allocatorIcEELi1ELb1EEC2B7v160006IRKS2_vEEOT_, symObjAddr: 0x3988, symBinAddr: 0x100006138, symSize: 0x18 }
  - { offsetInCU: 0x1C010, offset: 0x1C010, size: 0x8, addend: 0x0, symName: __ZNSt3__116allocator_traitsINS_9allocatorIcEEE8max_sizeB7v160006IS2_vEEmRKS2_, symObjAddr: 0x39A0, symBinAddr: 0x100006150, symSize: 0x24 }
  - { offsetInCU: 0x1C03E, offset: 0x1C03E, size: 0x8, addend: 0x0, symName: __ZNSt3__114numeric_limitsImE3maxB7v160006Ev, symObjAddr: 0x39C4, symBinAddr: 0x100006174, symSize: 0x14 }
  - { offsetInCU: 0x1C052, offset: 0x1C052, size: 0x8, addend: 0x0, symName: __ZNKSt3__19allocatorIcE8max_sizeB7v160006Ev, symObjAddr: 0x39D8, symBinAddr: 0x100006188, symSize: 0x14 }
  - { offsetInCU: 0x1C078, offset: 0x1C078, size: 0x8, addend: 0x0, symName: __ZNSt3__123__libcpp_numeric_limitsImLb1EE3maxB7v160006Ev, symObjAddr: 0x39EC, symBinAddr: 0x10000619C, symSize: 0x8 }
  - { offsetInCU: 0x1C08C, offset: 0x1C08C, size: 0x8, addend: 0x0, symName: __ZNSt12length_errorC1B7v160006EPKc, symObjAddr: 0x3A58, symBinAddr: 0x100006208, symSize: 0x34 }
  - { offsetInCU: 0x1C0C4, offset: 0x1C0C4, size: 0x8, addend: 0x0, symName: __ZNSt12length_errorC2B7v160006EPKc, symObjAddr: 0x3A8C, symBinAddr: 0x10000623C, symSize: 0x4C }
  - { offsetInCU: 0x1C0FC, offset: 0x1C0FC, size: 0x8, addend: 0x0, symName: __ZNSt3__112basic_stringIcNS_11char_traitsIcEENS_9allocatorIcEEE10__align_itB7v160006ILm16EEEmm, symObjAddr: 0x3AD8, symBinAddr: 0x100006288, symSize: 0x1C }
  - { offsetInCU: 0x1C12A, offset: 0x1C12A, size: 0x8, addend: 0x0, symName: __ZNSt3__19allocatorIcE8allocateB7v160006Em, symObjAddr: 0x3AF4, symBinAddr: 0x1000062A4, symSize: 0x58 }
  - { offsetInCU: 0x1C182, offset: 0x1C182, size: 0x8, addend: 0x0, symName: __ZNKSt3__114__copy_trivialclB7v160006IKccLi0EEENS_4pairIPT_PT0_EES5_S5_S7_, symObjAddr: 0x3E50, symBinAddr: 0x100006600, symSize: 0x48 }
  - { offsetInCU: 0x1C20A, offset: 0x1C20A, size: 0x8, addend: 0x0, symName: __ZNSt3__14pairIPKcS2_EC1B7v160006IS2_S2_LPv0EEEOT_OT0_, symObjAddr: 0x3FB8, symBinAddr: 0x100006768, symSize: 0x3C }
  - { offsetInCU: 0x1C268, offset: 0x1C268, size: 0x8, addend: 0x0, symName: __ZNSt3__14pairIPKcS2_EC2B7v160006IS2_S2_LPv0EEEOT_OT0_, symObjAddr: 0x3FF4, symBinAddr: 0x1000067A4, symSize: 0x34 }
  - { offsetInCU: 0x1C2C6, offset: 0x1C2C6, size: 0x8, addend: 0x0, symName: __ZNSt3__118__unwrap_iter_implIPKcLb1EE8__unwrapB7v160006ES2_, symObjAddr: 0x4028, symBinAddr: 0x1000067D8, symSize: 0x24 }
  - { offsetInCU: 0x1C2F4, offset: 0x1C2F4, size: 0x8, addend: 0x0, symName: __ZNSt3__14pairIPKcPcEC1B7v160006IRS2_S3_LPv0EEEOT_OT0_, symObjAddr: 0x4114, symBinAddr: 0x1000068C4, symSize: 0x3C }
  - { offsetInCU: 0x1C352, offset: 0x1C352, size: 0x8, addend: 0x0, symName: __ZNSt3__14pairIPKcPcEC2B7v160006IRS2_S3_LPv0EEEOT_OT0_, symObjAddr: 0x4150, symBinAddr: 0x100006900, symSize: 0x34 }
  - { offsetInCU: 0x1C3B0, offset: 0x1C3B0, size: 0x8, addend: 0x0, symName: __ZNSt3__118__unwrap_iter_implIPcLb1EE8__unwrapB7v160006ES1_, symObjAddr: 0x4184, symBinAddr: 0x100006934, symSize: 0x24 }
  - { offsetInCU: 0x1C3D3, offset: 0x1C3D3, size: 0x8, addend: 0x0, symName: __ZNSt3__14pairIPKcPcEC1B7v160006IS2_S3_LPv0EEEOT_OT0_, symObjAddr: 0x41A8, symBinAddr: 0x100006958, symSize: 0x3C }
  - { offsetInCU: 0x1C431, offset: 0x1C431, size: 0x8, addend: 0x0, symName: __ZNSt3__14pairIPKcPcEC2B7v160006IS2_S3_LPv0EEEOT_OT0_, symObjAddr: 0x41E4, symBinAddr: 0x100006994, symSize: 0x34 }
  - { offsetInCU: 0x1C48F, offset: 0x1C48F, size: 0x8, addend: 0x0, symName: __ZNSt3__118__unwrap_iter_implIPKcLb1EE8__rewrapB7v160006ES2_S2_, symObjAddr: 0x4254, symBinAddr: 0x100006A04, symSize: 0x48 }
  - { offsetInCU: 0x1C4C0, offset: 0x1C4C0, size: 0x8, addend: 0x0, symName: __ZNSt3__118__unwrap_iter_implIPcLb1EE8__rewrapB7v160006ES1_S1_, symObjAddr: 0x429C, symBinAddr: 0x100006A4C, symSize: 0x48 }
  - { offsetInCU: 0x1C4F1, offset: 0x1C4F1, size: 0x8, addend: 0x0, symName: __ZNKSt3__112basic_stringIcNS_11char_traitsIcEENS_9allocatorIcEEE13__get_pointerB7v160006Ev, symObjAddr: 0x42E4, symBinAddr: 0x100006A94, symSize: 0x54 }
  - { offsetInCU: 0x1C517, offset: 0x1C517, size: 0x8, addend: 0x0, symName: __ZNKSt3__112basic_stringIcNS_11char_traitsIcEENS_9allocatorIcEEE18__get_long_pointerB7v160006Ev, symObjAddr: 0x4338, symBinAddr: 0x100006AE8, symSize: 0x28 }
  - { offsetInCU: 0x1C53D, offset: 0x1C53D, size: 0x8, addend: 0x0, symName: __ZNKSt3__112basic_stringIcNS_11char_traitsIcEENS_9allocatorIcEEE19__get_short_pointerB7v160006Ev, symObjAddr: 0x4360, symBinAddr: 0x100006B10, symSize: 0x28 }
  - { offsetInCU: 0x1C563, offset: 0x1C563, size: 0x8, addend: 0x0, symName: __ZNSt3__114pointer_traitsIPKcE10pointer_toB7v160006ERS1_, symObjAddr: 0x4388, symBinAddr: 0x100006B38, symSize: 0x14 }
  - { offsetInCU: 0x1C586, offset: 0x1C586, size: 0x8, addend: 0x0, symName: __ZNSt3__112basic_stringIcNS_11char_traitsIcEENS_9allocatorIcEEE6appendB7v160006ERKS5_, symObjAddr: 0x4458, symBinAddr: 0x100006C08, symSize: 0x4C }
  - { offsetInCU: 0x1C5BB, offset: 0x1C5BB, size: 0x8, addend: 0x0, symName: __ZNSt3__112basic_stringIcNS_11char_traitsIcEENS_9allocatorIcEEEC1B7v160006EOS5_, symObjAddr: 0x44A4, symBinAddr: 0x100006C54, symSize: 0x34 }
  - { offsetInCU: 0x1C5F4, offset: 0x1C5F4, size: 0x8, addend: 0x0, symName: __ZNSt3__112basic_stringIcNS_11char_traitsIcEENS_9allocatorIcEEEC2B7v160006EOS5_, symObjAddr: 0x44D8, symBinAddr: 0x100006C88, symSize: 0x80 }
  - { offsetInCU: 0x1C62D, offset: 0x1C62D, size: 0x8, addend: 0x0, symName: __ZNSt3__112basic_stringIcNS_11char_traitsIcEENS_9allocatorIcEEEC2B7v160006IDnEEPKc, symObjAddr: 0x456C, symBinAddr: 0x100006D1C, symSize: 0x60 }
  - { offsetInCU: 0x1C680, offset: 0x1C680, size: 0x8, addend: 0x0, symName: __ZNSt3__16__treeINS_12__value_typeINS_12basic_stringIcNS_11char_traitsIcEENS_9allocatorIcEEEEP4nodeEENS_19__map_value_compareIS7_SA_NS_4lessIS7_EELb1EEENS5_ISA_EEE25__emplace_unique_key_argsIS7_JRKNS_21piecewise_construct_tENS_5tupleIJRKS7_EEENSL_IJEEEEEENS_4pairINS_15__tree_iteratorISA_PNS_11__tree_nodeISA_PvEElEEbEERKT_DpOT0_, symObjAddr: 0x45CC, symBinAddr: 0x100006D7C, symSize: 0x100 }
  - { offsetInCU: 0x1C756, offset: 0x1C756, size: 0x8, addend: 0x0, symName: __ZNKSt3__115__tree_iteratorINS_12__value_typeINS_12basic_stringIcNS_11char_traitsIcEENS_9allocatorIcEEEEP4nodeEEPNS_11__tree_nodeISA_PvEElEptB7v160006Ev, symObjAddr: 0x46FC, symBinAddr: 0x100006EAC, symSize: 0x2C }
  - { offsetInCU: 0x1C77C, offset: 0x1C77C, size: 0x8, addend: 0x0, symName: __ZNSt3__16__treeINS_12__value_typeINS_12basic_stringIcNS_11char_traitsIcEENS_9allocatorIcEEEEP4nodeEENS_19__map_value_compareIS7_SA_NS_4lessIS7_EELb1EEENS5_ISA_EEE12__find_equalIS7_EERPNS_16__tree_node_baseIPvEERPNS_15__tree_end_nodeISL_EERKT_, symObjAddr: 0x4728, symBinAddr: 0x100006ED8, symSize: 0x184 }
  - { offsetInCU: 0x1C7E9, offset: 0x1C7E9, size: 0x8, addend: 0x0, symName: __ZNSt3__16__treeINS_12__value_typeINS_12basic_stringIcNS_11char_traitsIcEENS_9allocatorIcEEEEP4nodeEENS_19__map_value_compareIS7_SA_NS_4lessIS7_EELb1EEENS5_ISA_EEE16__construct_nodeIJRKNS_21piecewise_construct_tENS_5tupleIJRKS7_EEENSL_IJEEEEEENS_10unique_ptrINS_11__tree_nodeISA_PvEENS_22__tree_node_destructorINS5_IST_EEEEEEDpOT_, symObjAddr: 0x48AC, symBinAddr: 0x10000705C, symSize: 0x120 }
  - { offsetInCU: 0x1C872, offset: 0x1C872, size: 0x8, addend: 0x0, symName: __ZNSt3__16__treeINS_12__value_typeINS_12basic_stringIcNS_11char_traitsIcEENS_9allocatorIcEEEEP4nodeEENS_19__map_value_compareIS7_SA_NS_4lessIS7_EELb1EEENS5_ISA_EEE16__insert_node_atEPNS_15__tree_end_nodeIPNS_16__tree_node_baseIPvEEEERSL_SL_, symObjAddr: 0x49CC, symBinAddr: 0x10000717C, symSize: 0xCC }
  - { offsetInCU: 0x1C8C7, offset: 0x1C8C7, size: 0x8, addend: 0x0, symName: __ZNKSt3__110unique_ptrINS_11__tree_nodeINS_12__value_typeINS_12basic_stringIcNS_11char_traitsIcEENS_9allocatorIcEEEEP4nodeEEPvEENS_22__tree_node_destructorINS6_ISD_EEEEE3getB7v160006Ev, symObjAddr: 0x4A98, symBinAddr: 0x100007248, symSize: 0x28 }
  - { offsetInCU: 0x1C8ED, offset: 0x1C8ED, size: 0x8, addend: 0x0, symName: __ZNSt3__110unique_ptrINS_11__tree_nodeINS_12__value_typeINS_12basic_stringIcNS_11char_traitsIcEENS_9allocatorIcEEEEP4nodeEEPvEENS_22__tree_node_destructorINS6_ISD_EEEEE7releaseB7v160006Ev, symObjAddr: 0x4AC0, symBinAddr: 0x100007270, symSize: 0x44 }
  - { offsetInCU: 0x1C922, offset: 0x1C922, size: 0x8, addend: 0x0, symName: __ZNSt3__110unique_ptrINS_11__tree_nodeINS_12__value_typeINS_12basic_stringIcNS_11char_traitsIcEENS_9allocatorIcEEEEP4nodeEEPvEENS_22__tree_node_destructorINS6_ISD_EEEEED1B7v160006Ev, symObjAddr: 0x4B04, symBinAddr: 0x1000072B4, symSize: 0x2C }
  - { offsetInCU: 0x1C94C, offset: 0x1C94C, size: 0x8, addend: 0x0, symName: __ZNSt3__115__tree_iteratorINS_12__value_typeINS_12basic_stringIcNS_11char_traitsIcEENS_9allocatorIcEEEEP4nodeEEPNS_11__tree_nodeISA_PvEElEC1B7v160006ESE_, symObjAddr: 0x4B30, symBinAddr: 0x1000072E0, symSize: 0x34 }
  - { offsetInCU: 0x1C98B, offset: 0x1C98B, size: 0x8, addend: 0x0, symName: __ZNSt3__14pairINS_15__tree_iteratorINS_12__value_typeINS_12basic_stringIcNS_11char_traitsIcEENS_9allocatorIcEEEEP4nodeEEPNS_11__tree_nodeISB_PvEElEEbEC1B7v160006ISG_RbLSD_0EEEOT_OT0_, symObjAddr: 0x4B64, symBinAddr: 0x100007314, symSize: 0x3C }
  - { offsetInCU: 0x1C9E9, offset: 0x1C9E9, size: 0x8, addend: 0x0, symName: __ZNKSt3__16__treeINS_12__value_typeINS_12basic_stringIcNS_11char_traitsIcEENS_9allocatorIcEEEEP4nodeEENS_19__map_value_compareIS7_SA_NS_4lessIS7_EELb1EEENS5_ISA_EEE10__root_ptrEv, symObjAddr: 0x4BA0, symBinAddr: 0x100007350, symSize: 0x24 }
  - { offsetInCU: 0x1CA0F, offset: 0x1CA0F, size: 0x8, addend: 0x0, symName: __ZNSt3__16__treeINS_12__value_typeINS_12basic_stringIcNS_11char_traitsIcEENS_9allocatorIcEEEEP4nodeEENS_19__map_value_compareIS7_SA_NS_4lessIS7_EELb1EEENS5_ISA_EEE10value_compB7v160006Ev, symObjAddr: 0x4BC4, symBinAddr: 0x100007374, symSize: 0x28 }
  - { offsetInCU: 0x1CA35, offset: 0x1CA35, size: 0x8, addend: 0x0, symName: __ZNKSt3__119__map_value_compareINS_12basic_stringIcNS_11char_traitsIcEENS_9allocatorIcEEEENS_12__value_typeIS6_P4nodeEENS_4lessIS6_EELb1EEclB7v160006ERKS6_RKSA_, symObjAddr: 0x4BEC, symBinAddr: 0x10000739C, symSize: 0x50 }
  - { offsetInCU: 0x1CA79, offset: 0x1CA79, size: 0x8, addend: 0x0, symName: __ZNKSt3__119__map_value_compareINS_12basic_stringIcNS_11char_traitsIcEENS_9allocatorIcEEEENS_12__value_typeIS6_P4nodeEENS_4lessIS6_EELb1EEclB7v160006ERKSA_RKS6_, symObjAddr: 0x4C3C, symBinAddr: 0x1000073EC, symSize: 0x48 }
  - { offsetInCU: 0x1CABD, offset: 0x1CABD, size: 0x8, addend: 0x0, symName: __ZNSt3__117__compressed_pairImNS_19__map_value_compareINS_12basic_stringIcNS_11char_traitsIcEENS_9allocatorIcEEEENS_12__value_typeIS7_P4nodeEENS_4lessIS7_EELb1EEEE6secondB7v160006Ev, symObjAddr: 0x4C84, symBinAddr: 0x100007434, symSize: 0x24 }
  - { offsetInCU: 0x1CAE3, offset: 0x1CAE3, size: 0x8, addend: 0x0, symName: __ZNSt3__122__compressed_pair_elemINS_19__map_value_compareINS_12basic_stringIcNS_11char_traitsIcEENS_9allocatorIcEEEENS_12__value_typeIS7_P4nodeEENS_4lessIS7_EELb1EEELi1ELb1EE5__getB7v160006Ev, symObjAddr: 0x4CA8, symBinAddr: 0x100007458, symSize: 0x14 }
  - { offsetInCU: 0x1CB09, offset: 0x1CB09, size: 0x8, addend: 0x0, symName: __ZNKSt3__14lessINS_12basic_stringIcNS_11char_traitsIcEENS_9allocatorIcEEEEEclB7v160006ERKS6_S9_, symObjAddr: 0x4CBC, symBinAddr: 0x10000746C, symSize: 0x34 }
  - { offsetInCU: 0x1CB4D, offset: 0x1CB4D, size: 0x8, addend: 0x0, symName: __ZNKSt3__112__value_typeINS_12basic_stringIcNS_11char_traitsIcEENS_9allocatorIcEEEEP4nodeE11__get_valueB7v160006Ev, symObjAddr: 0x4CF0, symBinAddr: 0x1000074A0, symSize: 0x24 }
  - { offsetInCU: 0x1CB73, offset: 0x1CB73, size: 0x8, addend: 0x0, symName: __ZNKSt3__112basic_stringIcNS_11char_traitsIcEENS_9allocatorIcEEE7compareB7v160006ERKS5_, symObjAddr: 0x4D4C, symBinAddr: 0x1000074FC, symSize: 0x4C }
  - { offsetInCU: 0x1CBAA, offset: 0x1CBAA, size: 0x8, addend: 0x0, symName: __ZNKSt3__112basic_stringIcNS_11char_traitsIcEENS_9allocatorIcEEE7compareINS_17basic_string_viewIcS2_EEEENS_9enable_ifIXsr33__can_be_converted_to_string_viewIcS2_T_EE5valueEiE4typeERKSA_, symObjAddr: 0x4D98, symBinAddr: 0x100007548, symSize: 0x12C }
  - { offsetInCU: 0x1CC27, offset: 0x1CC27, size: 0x8, addend: 0x0, symName: __ZNKSt3__112basic_stringIcNS_11char_traitsIcEENS_9allocatorIcEEEcvNS_17basic_string_viewIcS2_EEB7v160006Ev, symObjAddr: 0x4EC4, symBinAddr: 0x100007674, symSize: 0x50 }
  - { offsetInCU: 0x1CC4D, offset: 0x1CC4D, size: 0x8, addend: 0x0, symName: __ZNKSt3__117basic_string_viewIcNS_11char_traitsIcEEE4sizeB7v160006Ev, symObjAddr: 0x4F14, symBinAddr: 0x1000076C4, symSize: 0x18 }
  - { offsetInCU: 0x1CC73, offset: 0x1CC73, size: 0x8, addend: 0x0, symName: __ZNSt3__111char_traitsIcE7compareEPKcS3_m, symObjAddr: 0x4F2C, symBinAddr: 0x1000076DC, symSize: 0x6C }
  - { offsetInCU: 0x1CCB2, offset: 0x1CCB2, size: 0x8, addend: 0x0, symName: __ZNKSt3__117basic_string_viewIcNS_11char_traitsIcEEE4dataB7v160006Ev, symObjAddr: 0x4F98, symBinAddr: 0x100007748, symSize: 0x18 }
  - { offsetInCU: 0x1CCE2, offset: 0x1CCE2, size: 0x8, addend: 0x0, symName: __ZNKSt3__16__lessImmEclB7v160006ERKmS3_, symObjAddr: 0x5064, symBinAddr: 0x100007814, symSize: 0x34 }
  - { offsetInCU: 0x1CD24, offset: 0x1CD24, size: 0x8, addend: 0x0, symName: __ZNSt3__117basic_string_viewIcNS_11char_traitsIcEEEC1B7v160006EPKcm, symObjAddr: 0x5098, symBinAddr: 0x100007848, symSize: 0x3C }
  - { offsetInCU: 0x1CD6C, offset: 0x1CD6C, size: 0x8, addend: 0x0, symName: __ZNSt3__117basic_string_viewIcNS_11char_traitsIcEEEC2B7v160006EPKcm, symObjAddr: 0x50D4, symBinAddr: 0x100007884, symSize: 0x50 }
  - { offsetInCU: 0x1CDB4, offset: 0x1CDB4, size: 0x8, addend: 0x0, symName: __ZNSt3__116allocator_traitsINS_9allocatorINS_11__tree_nodeINS_12__value_typeINS_12basic_stringIcNS_11char_traitsIcEENS1_IcEEEEP4nodeEEPvEEEEE8allocateB7v160006ERSE_m, symObjAddr: 0x515C, symBinAddr: 0x10000790C, symSize: 0x2C }
  - { offsetInCU: 0x1CDE7, offset: 0x1CDE7, size: 0x8, addend: 0x0, symName: __ZNSt3__122__tree_node_destructorINS_9allocatorINS_11__tree_nodeINS_12__value_typeINS_12basic_stringIcNS_11char_traitsIcEENS1_IcEEEEP4nodeEEPvEEEEEC1B7v160006ERSE_b, symObjAddr: 0x5188, symBinAddr: 0x100007938, symSize: 0x48 }
  - { offsetInCU: 0x1CE35, offset: 0x1CE35, size: 0x8, addend: 0x0, symName: __ZNSt3__110unique_ptrINS_11__tree_nodeINS_12__value_typeINS_12basic_stringIcNS_11char_traitsIcEENS_9allocatorIcEEEEP4nodeEEPvEENS_22__tree_node_destructorINS6_ISD_EEEEEC1B7v160006ILb1EvEEPSD_NS_16__dependent_typeINS_27__unique_ptr_deleter_sfinaeISG_EEXT_EE20__good_rval_ref_typeE, symObjAddr: 0x51D0, symBinAddr: 0x100007980, symSize: 0x3C }
  - { offsetInCU: 0x1CE86, offset: 0x1CE86, size: 0x8, addend: 0x0, symName: __ZNSt3__116allocator_traitsINS_9allocatorINS_11__tree_nodeINS_12__value_typeINS_12basic_stringIcNS_11char_traitsIcEENS1_IcEEEEP4nodeEEPvEEEEE9constructB7v160006INS_4pairIKS8_SA_EEJRKNS_21piecewise_construct_tENS_5tupleIJRSI_EEENSN_IJEEEEvEEvRSE_PT_DpOT0_, symObjAddr: 0x520C, symBinAddr: 0x1000079BC, symSize: 0x44 }
  - { offsetInCU: 0x1CF05, offset: 0x1CF05, size: 0x8, addend: 0x0, symName: __ZNKSt3__110unique_ptrINS_11__tree_nodeINS_12__value_typeINS_12basic_stringIcNS_11char_traitsIcEENS_9allocatorIcEEEEP4nodeEEPvEENS_22__tree_node_destructorINS6_ISD_EEEEEptB7v160006Ev, symObjAddr: 0x5250, symBinAddr: 0x100007A00, symSize: 0x28 }
  - { offsetInCU: 0x1CF2B, offset: 0x1CF2B, size: 0x8, addend: 0x0, symName: __ZNSt3__110unique_ptrINS_11__tree_nodeINS_12__value_typeINS_12basic_stringIcNS_11char_traitsIcEENS_9allocatorIcEEEEP4nodeEEPvEENS_22__tree_node_destructorINS6_ISD_EEEEE11get_deleterB7v160006Ev, symObjAddr: 0x5278, symBinAddr: 0x100007A28, symSize: 0x24 }
  - { offsetInCU: 0x1CF51, offset: 0x1CF51, size: 0x8, addend: 0x0, symName: __ZNSt3__19allocatorINS_11__tree_nodeINS_12__value_typeINS_12basic_stringIcNS_11char_traitsIcEENS0_IcEEEEP4nodeEEPvEEE8allocateB7v160006Em, symObjAddr: 0x529C, symBinAddr: 0x100007A4C, symSize: 0x58 }
  - { offsetInCU: 0x1CF8F, offset: 0x1CF8F, size: 0x8, addend: 0x0, symName: __ZNSt3__116allocator_traitsINS_9allocatorINS_11__tree_nodeINS_12__value_typeINS_12basic_stringIcNS_11char_traitsIcEENS1_IcEEEEP4nodeEEPvEEEEE8max_sizeB7v160006ISE_vEEmRKSE_, symObjAddr: 0x52F4, symBinAddr: 0x100007AA4, symSize: 0x24 }
  - { offsetInCU: 0x1CFBD, offset: 0x1CFBD, size: 0x8, addend: 0x0, symName: __ZNKSt3__19allocatorINS_11__tree_nodeINS_12__value_typeINS_12basic_stringIcNS_11char_traitsIcEENS0_IcEEEEP4nodeEEPvEEE8max_sizeB7v160006Ev, symObjAddr: 0x5318, symBinAddr: 0x100007AC8, symSize: 0x14 }
  - { offsetInCU: 0x1CFE3, offset: 0x1CFE3, size: 0x8, addend: 0x0, symName: __ZNSt3__122__tree_node_destructorINS_9allocatorINS_11__tree_nodeINS_12__value_typeINS_12basic_stringIcNS_11char_traitsIcEENS1_IcEEEEP4nodeEEPvEEEEEC2B7v160006ERSE_b, symObjAddr: 0x532C, symBinAddr: 0x100007ADC, symSize: 0x38 }
  - { offsetInCU: 0x1D02B, offset: 0x1D02B, size: 0x8, addend: 0x0, symName: __ZNSt3__110unique_ptrINS_11__tree_nodeINS_12__value_typeINS_12basic_stringIcNS_11char_traitsIcEENS_9allocatorIcEEEEP4nodeEEPvEENS_22__tree_node_destructorINS6_ISD_EEEEEC2B7v160006ILb1EvEEPSD_NS_16__dependent_typeINS_27__unique_ptr_deleter_sfinaeISG_EEXT_EE20__good_rval_ref_typeE, symObjAddr: 0x5364, symBinAddr: 0x100007B14, symSize: 0x48 }
  - { offsetInCU: 0x1D07C, offset: 0x1D07C, size: 0x8, addend: 0x0, symName: __ZNSt3__117__compressed_pairIPNS_11__tree_nodeINS_12__value_typeINS_12basic_stringIcNS_11char_traitsIcEENS_9allocatorIcEEEEP4nodeEEPvEENS_22__tree_node_destructorINS6_ISD_EEEEEC1B7v160006IRSE_SH_EEOT_OT0_, symObjAddr: 0x53AC, symBinAddr: 0x100007B5C, symSize: 0x3C }
  - { offsetInCU: 0x1D0D4, offset: 0x1D0D4, size: 0x8, addend: 0x0, symName: __ZNSt3__117__compressed_pairIPNS_11__tree_nodeINS_12__value_typeINS_12basic_stringIcNS_11char_traitsIcEENS_9allocatorIcEEEEP4nodeEEPvEENS_22__tree_node_destructorINS6_ISD_EEEEEC2B7v160006IRSE_SH_EEOT_OT0_, symObjAddr: 0x53E8, symBinAddr: 0x100007B98, symSize: 0x48 }
  - { offsetInCU: 0x1D12C, offset: 0x1D12C, size: 0x8, addend: 0x0, symName: __ZNSt3__122__compressed_pair_elemIPNS_11__tree_nodeINS_12__value_typeINS_12basic_stringIcNS_11char_traitsIcEENS_9allocatorIcEEEEP4nodeEEPvEELi0ELb0EEC2B7v160006IRSE_vEEOT_, symObjAddr: 0x5430, symBinAddr: 0x100007BE0, symSize: 0x24 }
  - { offsetInCU: 0x1D16E, offset: 0x1D16E, size: 0x8, addend: 0x0, symName: __ZNSt3__122__compressed_pair_elemINS_22__tree_node_destructorINS_9allocatorINS_11__tree_nodeINS_12__value_typeINS_12basic_stringIcNS_11char_traitsIcEENS2_IcEEEEP4nodeEEPvEEEEEELi1ELb0EEC2B7v160006ISG_vEEOT_, symObjAddr: 0x5454, symBinAddr: 0x100007C04, symSize: 0x24 }
  - { offsetInCU: 0x1D1B0, offset: 0x1D1B0, size: 0x8, addend: 0x0, symName: __ZNSt3__19allocatorINS_11__tree_nodeINS_12__value_typeINS_12basic_stringIcNS_11char_traitsIcEENS0_IcEEEEP4nodeEEPvEEE9constructB7v160006INS_4pairIKS7_S9_EEJRKNS_21piecewise_construct_tENS_5tupleIJRSG_EEENSL_IJEEEEEEvPT_DpOT0_, symObjAddr: 0x5478, symBinAddr: 0x100007C28, symSize: 0x44 }
  - { offsetInCU: 0x1D22C, offset: 0x1D22C, size: 0x8, addend: 0x0, symName: __ZNSt3__14pairIKNS_12basic_stringIcNS_11char_traitsIcEENS_9allocatorIcEEEEP4nodeEC1B7v160006IJRS7_EJEEENS_21piecewise_construct_tENS_5tupleIJDpT_EEENSE_IJDpT0_EEE, symObjAddr: 0x54BC, symBinAddr: 0x100007C6C, symSize: 0x3C }
  - { offsetInCU: 0x1D293, offset: 0x1D293, size: 0x8, addend: 0x0, symName: __ZNSt3__14pairIKNS_12basic_stringIcNS_11char_traitsIcEENS_9allocatorIcEEEEP4nodeEC1B7v160006IJRS7_EJEJLm0EEJEEENS_21piecewise_construct_tERNS_5tupleIJDpT_EEERNSE_IJDpT0_EEENS_15__tuple_indicesIJXspT1_EEEENSN_IJXspT2_EEEE, symObjAddr: 0x54F8, symBinAddr: 0x100007CA8, symSize: 0x3C }
  - { offsetInCU: 0x1D323, offset: 0x1D323, size: 0x8, addend: 0x0, symName: __ZNSt3__14pairIKNS_12basic_stringIcNS_11char_traitsIcEENS_9allocatorIcEEEEP4nodeEC2B7v160006IJRS7_EJEJLm0EEJEEENS_21piecewise_construct_tERNS_5tupleIJDpT_EEERNSE_IJDpT0_EEENS_15__tuple_indicesIJXspT1_EEEENSN_IJXspT2_EEEE, symObjAddr: 0x5534, symBinAddr: 0x100007CE4, symSize: 0x48 }
  - { offsetInCU: 0x1D3B3, offset: 0x1D3B3, size: 0x8, addend: 0x0, symName: __ZNSt3__112__tuple_leafILm0ERKNS_12basic_stringIcNS_11char_traitsIcEENS_9allocatorIcEEEELb0EE3getB7v160006Ev, symObjAddr: 0x55A0, symBinAddr: 0x100007D50, symSize: 0x18 }
  - { offsetInCU: 0x1D3D9, offset: 0x1D3D9, size: 0x8, addend: 0x0, symName: __ZNKSt3__117__compressed_pairIPNS_11__tree_nodeINS_12__value_typeINS_12basic_stringIcNS_11char_traitsIcEENS_9allocatorIcEEEEP4nodeEEPvEENS_22__tree_node_destructorINS6_ISD_EEEEE5firstB7v160006Ev, symObjAddr: 0x55B8, symBinAddr: 0x100007D68, symSize: 0x24 }
  - { offsetInCU: 0x1D3FF, offset: 0x1D3FF, size: 0x8, addend: 0x0, symName: __ZNKSt3__122__compressed_pair_elemIPNS_11__tree_nodeINS_12__value_typeINS_12basic_stringIcNS_11char_traitsIcEENS_9allocatorIcEEEEP4nodeEEPvEELi0ELb0EE5__getB7v160006Ev, symObjAddr: 0x55DC, symBinAddr: 0x100007D8C, symSize: 0x14 }
  - { offsetInCU: 0x1D425, offset: 0x1D425, size: 0x8, addend: 0x0, symName: __ZNSt3__117__compressed_pairIPNS_11__tree_nodeINS_12__value_typeINS_12basic_stringIcNS_11char_traitsIcEENS_9allocatorIcEEEEP4nodeEEPvEENS_22__tree_node_destructorINS6_ISD_EEEEE6secondB7v160006Ev, symObjAddr: 0x55F0, symBinAddr: 0x100007DA0, symSize: 0x28 }
  - { offsetInCU: 0x1D44B, offset: 0x1D44B, size: 0x8, addend: 0x0, symName: __ZNSt3__122__compressed_pair_elemINS_22__tree_node_destructorINS_9allocatorINS_11__tree_nodeINS_12__value_typeINS_12basic_stringIcNS_11char_traitsIcEENS2_IcEEEEP4nodeEEPvEEEEEELi1ELb0EE5__getB7v160006Ev, symObjAddr: 0x5618, symBinAddr: 0x100007DC8, symSize: 0x14 }
  - { offsetInCU: 0x1D471, offset: 0x1D471, size: 0x8, addend: 0x0, symName: __ZNSt3__16__treeINS_12__value_typeINS_12basic_stringIcNS_11char_traitsIcEENS_9allocatorIcEEEEP4nodeEENS_19__map_value_compareIS7_SA_NS_4lessIS7_EELb1EEENS5_ISA_EEE4sizeB7v160006Ev, symObjAddr: 0x5958, symBinAddr: 0x100008108, symSize: 0x28 }
  - { offsetInCU: 0x1D497, offset: 0x1D497, size: 0x8, addend: 0x0, symName: __ZNKSt3__116__tree_node_baseIPvE15__parent_unsafeB7v160006Ev, symObjAddr: 0x5980, symBinAddr: 0x100008130, symSize: 0x18 }
  - { offsetInCU: 0x1D4BD, offset: 0x1D4BD, size: 0x8, addend: 0x0, symName: __ZNSt3__116__tree_node_baseIPvE12__set_parentB7v160006EPS2_, symObjAddr: 0x5B68, symBinAddr: 0x100008318, symSize: 0x20 }
  - { offsetInCU: 0x1D4F2, offset: 0x1D4F2, size: 0x8, addend: 0x0, symName: __ZNSt3__117__compressed_pairImNS_19__map_value_compareINS_12basic_stringIcNS_11char_traitsIcEENS_9allocatorIcEEEENS_12__value_typeIS7_P4nodeEENS_4lessIS7_EELb1EEEE5firstB7v160006Ev, symObjAddr: 0x5B88, symBinAddr: 0x100008338, symSize: 0x24 }
  - { offsetInCU: 0x1D518, offset: 0x1D518, size: 0x8, addend: 0x0, symName: __ZNSt3__122__compressed_pair_elemImLi0ELb0EE5__getB7v160006Ev, symObjAddr: 0x5BAC, symBinAddr: 0x10000835C, symSize: 0x14 }
  - { offsetInCU: 0x1D53E, offset: 0x1D53E, size: 0x8, addend: 0x0, symName: __ZNSt3__117__compressed_pairIPNS_11__tree_nodeINS_12__value_typeINS_12basic_stringIcNS_11char_traitsIcEENS_9allocatorIcEEEEP4nodeEEPvEENS_22__tree_node_destructorINS6_ISD_EEEEE5firstB7v160006Ev, symObjAddr: 0x5BC0, symBinAddr: 0x100008370, symSize: 0x24 }
  - { offsetInCU: 0x1D564, offset: 0x1D564, size: 0x8, addend: 0x0, symName: __ZNSt3__122__compressed_pair_elemIPNS_11__tree_nodeINS_12__value_typeINS_12basic_stringIcNS_11char_traitsIcEENS_9allocatorIcEEEEP4nodeEEPvEELi0ELb0EE5__getB7v160006Ev, symObjAddr: 0x5BE4, symBinAddr: 0x100008394, symSize: 0x14 }
  - { offsetInCU: 0x1D58A, offset: 0x1D58A, size: 0x8, addend: 0x0, symName: __ZNSt3__110unique_ptrINS_11__tree_nodeINS_12__value_typeINS_12basic_stringIcNS_11char_traitsIcEENS_9allocatorIcEEEEP4nodeEEPvEENS_22__tree_node_destructorINS6_ISD_EEEEED2B7v160006Ev, symObjAddr: 0x5BF8, symBinAddr: 0x1000083A8, symSize: 0x30 }
  - { offsetInCU: 0x1D5B4, offset: 0x1D5B4, size: 0x8, addend: 0x0, symName: __ZNSt3__110unique_ptrINS_11__tree_nodeINS_12__value_typeINS_12basic_stringIcNS_11char_traitsIcEENS_9allocatorIcEEEEP4nodeEEPvEENS_22__tree_node_destructorINS6_ISD_EEEEE5resetB7v160006EPSD_, symObjAddr: 0x5C28, symBinAddr: 0x1000083D8, symSize: 0x78 }
  - { offsetInCU: 0x1D5F8, offset: 0x1D5F8, size: 0x8, addend: 0x0, symName: __ZNSt3__122__tree_node_destructorINS_9allocatorINS_11__tree_nodeINS_12__value_typeINS_12basic_stringIcNS_11char_traitsIcEENS1_IcEEEEP4nodeEEPvEEEEEclB7v160006EPSD_, symObjAddr: 0x5CA0, symBinAddr: 0x100008450, symSize: 0x94 }
  - { offsetInCU: 0x1D62D, offset: 0x1D62D, size: 0x8, addend: 0x0, symName: __ZNSt3__115__tree_iteratorINS_12__value_typeINS_12basic_stringIcNS_11char_traitsIcEENS_9allocatorIcEEEEP4nodeEEPNS_11__tree_nodeISA_PvEElEC2B7v160006ESE_, symObjAddr: 0x5D34, symBinAddr: 0x1000084E4, symSize: 0x20 }
  - { offsetInCU: 0x1D666, offset: 0x1D666, size: 0x8, addend: 0x0, symName: __ZNSt3__14pairINS_15__tree_iteratorINS_12__value_typeINS_12basic_stringIcNS_11char_traitsIcEENS_9allocatorIcEEEEP4nodeEEPNS_11__tree_nodeISB_PvEElEEbEC2B7v160006ISG_RbLSD_0EEEOT_OT0_, symObjAddr: 0x5D54, symBinAddr: 0x100008504, symSize: 0x38 }
  - { offsetInCU: 0x1D6C4, offset: 0x1D6C4, size: 0x8, addend: 0x0, symName: __ZNSt3__15tupleIJRKNS_12basic_stringIcNS_11char_traitsIcEENS_9allocatorIcEEEEEEC1B7v160006INS_4_AndELi0EEES8_, symObjAddr: 0x5D8C, symBinAddr: 0x10000853C, symSize: 0x34 }
  - { offsetInCU: 0x1D70C, offset: 0x1D70C, size: 0x8, addend: 0x0, symName: __ZNSt3__15tupleIJRKNS_12basic_stringIcNS_11char_traitsIcEENS_9allocatorIcEEEEEEC2B7v160006INS_4_AndELi0EEES8_, symObjAddr: 0x5DC0, symBinAddr: 0x100008570, symSize: 0x34 }
  - { offsetInCU: 0x1D754, offset: 0x1D754, size: 0x8, addend: 0x0, symName: __ZNSt3__112__tuple_implINS_15__tuple_indicesIJLm0EEEEJRKNS_12basic_stringIcNS_11char_traitsIcEENS_9allocatorIcEEEEEEC1B7v160006IJLm0EEJSA_EJEJEJSA_EEENS1_IJXspT_EEEENS_13__tuple_typesIJDpT0_EEENS1_IJXspT1_EEEENSE_IJDpT2_EEEDpOT3_, symObjAddr: 0x5DF4, symBinAddr: 0x1000085A4, symSize: 0x34 }
  - { offsetInCU: 0x1D7E9, offset: 0x1D7E9, size: 0x8, addend: 0x0, symName: __ZNSt3__112__tuple_implINS_15__tuple_indicesIJLm0EEEEJRKNS_12basic_stringIcNS_11char_traitsIcEENS_9allocatorIcEEEEEEC2B7v160006IJLm0EEJSA_EJEJEJSA_EEENS1_IJXspT_EEEENS_13__tuple_typesIJDpT0_EEENS1_IJXspT1_EEEENSE_IJDpT2_EEEDpOT3_, symObjAddr: 0x5E28, symBinAddr: 0x1000085D8, symSize: 0x34 }
  - { offsetInCU: 0x1D87E, offset: 0x1D87E, size: 0x8, addend: 0x0, symName: __ZNSt3__112__tuple_leafILm0ERKNS_12basic_stringIcNS_11char_traitsIcEENS_9allocatorIcEEEELb0EEC2B7v160006IS8_vEEOT_, symObjAddr: 0x5E5C, symBinAddr: 0x10000860C, symSize: 0x20 }
  - { offsetInCU: 0x1D8C1, offset: 0x1D8C1, size: 0x8, addend: 0x0, symName: __ZNSt3__114pointer_traitsIPNS_12__value_typeINS_12basic_stringIcNS_11char_traitsIcEENS_9allocatorIcEEEEP4nodeEEE10pointer_toB7v160006ERSA_, symObjAddr: 0x5E7C, symBinAddr: 0x10000862C, symSize: 0x14 }
  - { offsetInCU: 0x1D8E4, offset: 0x1D8E4, size: 0x8, addend: 0x0, symName: __ZNKSt3__115__tree_iteratorINS_12__value_typeINS_12basic_stringIcNS_11char_traitsIcEENS_9allocatorIcEEEEP4nodeEEPNS_11__tree_nodeISA_PvEElE8__get_npB7v160006Ev, symObjAddr: 0x5E90, symBinAddr: 0x100008640, symSize: 0x18 }
  - { offsetInCU: 0x1D90A, offset: 0x1D90A, size: 0x8, addend: 0x0, symName: __ZNSt3__19basic_iosIcNS_11char_traitsIcEEEC2B7v160006Ev, symObjAddr: 0x5EA8, symBinAddr: 0x100008658, symSize: 0x44 }
  - { offsetInCU: 0x1D934, offset: 0x1D934, size: 0x8, addend: 0x0, symName: __ZNSt3__113basic_istreamIcNS_11char_traitsIcEEEC2B7v160006EPNS_15basic_streambufIcS2_EE, symObjAddr: 0x5EEC, symBinAddr: 0x10000869C, symSize: 0x64 }
  - { offsetInCU: 0x1D979, offset: 0x1D979, size: 0x8, addend: 0x0, symName: __ZNSt3__18ios_baseC2B7v160006Ev, symObjAddr: 0x5F50, symBinAddr: 0x100008700, symSize: 0x24 }
  - { offsetInCU: 0x1D9A3, offset: 0x1D9A3, size: 0x8, addend: 0x0, symName: __ZNSt3__19basic_iosIcNS_11char_traitsIcEEE4initB7v160006EPNS_15basic_streambufIcS2_EE, symObjAddr: 0x5F74, symBinAddr: 0x100008724, symSize: 0x44 }
  - { offsetInCU: 0x1D9DA, offset: 0x1D9DA, size: 0x8, addend: 0x0, symName: __ZNSt3__111char_traitsIcE3eofEv, symObjAddr: 0x5FB8, symBinAddr: 0x100008768, symSize: 0x8 }
  - { offsetInCU: 0x1D9EE, offset: 0x1D9EE, size: 0x8, addend: 0x0, symName: __ZNKSt3__113basic_filebufIcNS_11char_traitsIcEEE7is_openEv, symObjAddr: 0x5FC0, symBinAddr: 0x100008770, symSize: 0x24 }
  - { offsetInCU: 0x1DA34, offset: 0x1DA34, size: 0x8, addend: 0x0, symName: __ZNKSt3__113basic_ostreamIcNS_11char_traitsIcEEE6sentrycvbB7v160006Ev, symObjAddr: 0x61D0, symBinAddr: 0x100008980, symSize: 0x1C }
  - { offsetInCU: 0x1DA5A, offset: 0x1DA5A, size: 0x8, addend: 0x0, symName: __ZNSt3__119ostreambuf_iteratorIcNS_11char_traitsIcEEEC1B7v160006ERNS_13basic_ostreamIcS2_EE, symObjAddr: 0x642C, symBinAddr: 0x100008BDC, symSize: 0x34 }
  - { offsetInCU: 0x1DA92, offset: 0x1DA92, size: 0x8, addend: 0x0, symName: __ZNKSt3__18ios_base5flagsB7v160006Ev, symObjAddr: 0x6460, symBinAddr: 0x100008C10, symSize: 0x18 }
  - { offsetInCU: 0x1DABA, offset: 0x1DABA, size: 0x8, addend: 0x0, symName: __ZNKSt3__19basic_iosIcNS_11char_traitsIcEEE4fillB7v160006Ev, symObjAddr: 0x6478, symBinAddr: 0x100008C28, symSize: 0x64 }
  - { offsetInCU: 0x1DAE2, offset: 0x1DAE2, size: 0x8, addend: 0x0, symName: __ZNKSt3__119ostreambuf_iteratorIcNS_11char_traitsIcEEE6failedB7v160006Ev, symObjAddr: 0x64DC, symBinAddr: 0x100008C8C, symSize: 0x24 }
  - { offsetInCU: 0x1DB08, offset: 0x1DB08, size: 0x8, addend: 0x0, symName: __ZNSt3__19basic_iosIcNS_11char_traitsIcEEE8setstateB7v160006Ej, symObjAddr: 0x6500, symBinAddr: 0x100008CB0, symSize: 0x2C }
  - { offsetInCU: 0x1DB3D, offset: 0x1DB3D, size: 0x8, addend: 0x0, symName: __ZNKSt3__18ios_base5widthB7v160006Ev, symObjAddr: 0x652C, symBinAddr: 0x100008CDC, symSize: 0x18 }
  - { offsetInCU: 0x1DB65, offset: 0x1DB65, size: 0x8, addend: 0x0, symName: __ZNSt3__115basic_streambufIcNS_11char_traitsIcEEE5sputnB7v160006EPKcl, symObjAddr: 0x6544, symBinAddr: 0x100008CF4, symSize: 0x3C }
  - { offsetInCU: 0x1DBA7, offset: 0x1DBA7, size: 0x8, addend: 0x0, symName: __ZNSt3__112basic_stringIcNS_11char_traitsIcEENS_9allocatorIcEEEC1B7v160006Emc, symObjAddr: 0x6580, symBinAddr: 0x100008D30, symSize: 0x3C }
  - { offsetInCU: 0x1DBEF, offset: 0x1DBEF, size: 0x8, addend: 0x0, symName: __ZNSt3__112basic_stringIcNS_11char_traitsIcEENS_9allocatorIcEEE4dataB7v160006Ev, symObjAddr: 0x65BC, symBinAddr: 0x100008D6C, symSize: 0x28 }
  - { offsetInCU: 0x1DC15, offset: 0x1DC15, size: 0x8, addend: 0x0, symName: __ZNSt3__18ios_base5widthB7v160006El, symObjAddr: 0x65E4, symBinAddr: 0x100008D94, symSize: 0x2C }
  - { offsetInCU: 0x1DC5B, offset: 0x1DC5B, size: 0x8, addend: 0x0, symName: __ZNSt3__112basic_stringIcNS_11char_traitsIcEENS_9allocatorIcEEEC2B7v160006Emc, symObjAddr: 0x6610, symBinAddr: 0x100008DC0, symSize: 0x54 }
  - { offsetInCU: 0x1DCA3, offset: 0x1DCA3, size: 0x8, addend: 0x0, symName: __ZNSt3__119ostreambuf_iteratorIcNS_11char_traitsIcEEEC2B7v160006ERNS_13basic_ostreamIcS2_EE, symObjAddr: 0x6664, symBinAddr: 0x100008E14, symSize: 0x54 }
  - { offsetInCU: 0x1DCDB, offset: 0x1DCDB, size: 0x8, addend: 0x0, symName: __ZNKSt3__19basic_iosIcNS_11char_traitsIcEEE5rdbufB7v160006Ev, symObjAddr: 0x66B8, symBinAddr: 0x100008E68, symSize: 0x24 }
  - { offsetInCU: 0x1DD03, offset: 0x1DD03, size: 0x8, addend: 0x0, symName: __ZNKSt3__18ios_base5rdbufB7v160006Ev, symObjAddr: 0x66DC, symBinAddr: 0x100008E8C, symSize: 0x18 }
  - { offsetInCU: 0x1DD29, offset: 0x1DD29, size: 0x8, addend: 0x0, symName: __ZNSt3__111char_traitsIcE11eq_int_typeEii, symObjAddr: 0x66F4, symBinAddr: 0x100008EA4, symSize: 0x28 }
  - { offsetInCU: 0x1DD5A, offset: 0x1DD5A, size: 0x8, addend: 0x0, symName: __ZNKSt3__19basic_iosIcNS_11char_traitsIcEEE5widenB7v160006Ec, symObjAddr: 0x671C, symBinAddr: 0x100008ECC, symSize: 0x84 }
  - { offsetInCU: 0x1DDC8, offset: 0x1DDC8, size: 0x8, addend: 0x0, symName: __ZNKSt3__15ctypeIcE5widenB7v160006Ec, symObjAddr: 0x67CC, symBinAddr: 0x100008F7C, symSize: 0x38 }
  - { offsetInCU: 0x1DDFD, offset: 0x1DDFD, size: 0x8, addend: 0x0, symName: __ZNSt3__18ios_base8setstateB7v160006Ej, symObjAddr: 0x6804, symBinAddr: 0x100008FB4, symSize: 0x34 }
  - { offsetInCU: 0x1DE52, offset: 0x1DE52, size: 0x8, addend: 0x0, symName: __ZNKSt3__113basic_istreamIcNS_11char_traitsIcEEE6sentrycvbB7v160006Ev, symObjAddr: 0x6A70, symBinAddr: 0x100009220, symSize: 0x1C }
  - { offsetInCU: 0x1DE78, offset: 0x1DE78, size: 0x8, addend: 0x0, symName: __ZNSt3__112basic_stringIcNS_11char_traitsIcEENS_9allocatorIcEEE5clearB7v160006Ev, symObjAddr: 0x6A8C, symBinAddr: 0x10000923C, symSize: 0x88 }
  - { offsetInCU: 0x1DEA0, offset: 0x1DEA0, size: 0x8, addend: 0x0, symName: __ZNSt3__115basic_streambufIcNS_11char_traitsIcEEE6sbumpcB7v160006Ev, symObjAddr: 0x6B14, symBinAddr: 0x1000092C4, symSize: 0x78 }
  - { offsetInCU: 0x1DEC6, offset: 0x1DEC6, size: 0x8, addend: 0x0, symName: __ZNSt3__111char_traitsIcE12to_char_typeEi, symObjAddr: 0x6B8C, symBinAddr: 0x10000933C, symSize: 0x18 }
  - { offsetInCU: 0x1DEE9, offset: 0x1DEE9, size: 0x8, addend: 0x0, symName: __ZNSt3__111char_traitsIcE2eqEcc, symObjAddr: 0x6BA4, symBinAddr: 0x100009354, symSize: 0x28 }
  - { offsetInCU: 0x1DF1A, offset: 0x1DF1A, size: 0x8, addend: 0x0, symName: __ZNSt3__18ios_base18__setstate_nothrowB7v160006Ej, symObjAddr: 0x6BCC, symBinAddr: 0x10000937C, symSize: 0x64 }
  - { offsetInCU: 0x1DF4F, offset: 0x1DF4F, size: 0x8, addend: 0x0, symName: __ZNKSt3__19basic_iosIcNS_11char_traitsIcEEE10exceptionsB7v160006Ev, symObjAddr: 0x6C30, symBinAddr: 0x1000093E0, symSize: 0x24 }
  - { offsetInCU: 0x1DF75, offset: 0x1DF75, size: 0x8, addend: 0x0, symName: __ZNSt3__111char_traitsIcE11to_int_typeEc, symObjAddr: 0x6C64, symBinAddr: 0x100009414, symSize: 0x14 }
  - { offsetInCU: 0x1DF98, offset: 0x1DF98, size: 0x8, addend: 0x0, symName: __ZNKSt3__18ios_base10exceptionsB7v160006Ev, symObjAddr: 0x6C78, symBinAddr: 0x100009428, symSize: 0x18 }
  - { offsetInCU: 0x1DFC0, offset: 0x1DFC0, size: 0x8, addend: 0x0, symName: __ZNKSt3__19basic_iosIcNS_11char_traitsIcEEE4failB7v160006Ev, symObjAddr: 0x6C90, symBinAddr: 0x100009440, symSize: 0x28 }
  - { offsetInCU: 0x1DFE6, offset: 0x1DFE6, size: 0x8, addend: 0x0, symName: __ZNKSt3__18ios_base4failB7v160006Ev, symObjAddr: 0x6CB8, symBinAddr: 0x100009468, symSize: 0x28 }
  - { offsetInCU: 0x1E00E, offset: 0x1E00E, size: 0x8, addend: 0x0, symName: __ZNSt3__111char_traitsIcE4findEPKcmRS2_, symObjAddr: 0x6DBC, symBinAddr: 0x10000956C, symSize: 0x70 }
  - { offsetInCU: 0x1E04D, offset: 0x1E04D, size: 0x8, addend: 0x0, symName: __ZNSt3__19allocatorIcEC1B7v160006Ev, symObjAddr: 0x7098, symBinAddr: 0x100009848, symSize: 0x2C }
  - { offsetInCU: 0x1E077, offset: 0x1E077, size: 0x8, addend: 0x0, symName: __ZNSt3__16vectorINS_12basic_stringIcNS_11char_traitsIcEENS_9allocatorIcEEEENS4_IS6_EEE9__end_capB7v160006Ev, symObjAddr: 0x70C4, symBinAddr: 0x100009874, symSize: 0x28 }
  - { offsetInCU: 0x1E0A3, offset: 0x1E0A3, size: 0x8, addend: 0x0, symName: __ZNSt3__16vectorINS_12basic_stringIcNS_11char_traitsIcEENS_9allocatorIcEEEENS4_IS6_EEE22__construct_one_at_endB7v160006IJS6_EEEvDpOT_, symObjAddr: 0x70EC, symBinAddr: 0x10000989C, symSize: 0x90 }
  - { offsetInCU: 0x1E0F2, offset: 0x1E0F2, size: 0x8, addend: 0x0, symName: __ZNSt3__16vectorINS_12basic_stringIcNS_11char_traitsIcEENS_9allocatorIcEEEENS4_IS6_EEE21__push_back_slow_pathIS6_EEvOT_, symObjAddr: 0x717C, symBinAddr: 0x10000992C, symSize: 0xD8 }
  - { offsetInCU: 0x1E150, offset: 0x1E150, size: 0x8, addend: 0x0, symName: __ZNSt3__117__compressed_pairIPNS_12basic_stringIcNS_11char_traitsIcEENS_9allocatorIcEEEENS4_IS6_EEE5firstB7v160006Ev, symObjAddr: 0x7254, symBinAddr: 0x100009A04, symSize: 0x24 }
  - { offsetInCU: 0x1E176, offset: 0x1E176, size: 0x8, addend: 0x0, symName: __ZNSt3__122__compressed_pair_elemIPNS_12basic_stringIcNS_11char_traitsIcEENS_9allocatorIcEEEELi0ELb0EE5__getB7v160006Ev, symObjAddr: 0x7278, symBinAddr: 0x100009A28, symSize: 0x14 }
  - { offsetInCU: 0x1E1B5, offset: 0x1E1B5, size: 0x8, addend: 0x0, symName: __ZNSt3__16vectorINS_12basic_stringIcNS_11char_traitsIcEENS_9allocatorIcEEEENS4_IS6_EEE21_ConstructTransactionC1B7v160006ERS8_m, symObjAddr: 0x728C, symBinAddr: 0x100009A3C, symSize: 0x3C }
  - { offsetInCU: 0x1E1FD, offset: 0x1E1FD, size: 0x8, addend: 0x0, symName: __ZNSt3__116allocator_traitsINS_9allocatorINS_12basic_stringIcNS_11char_traitsIcEENS1_IcEEEEEEE9constructB7v160006IS6_JS6_EvEEvRS7_PT_DpOT0_, symObjAddr: 0x72C8, symBinAddr: 0x100009A78, symSize: 0x34 }
  - { offsetInCU: 0x1E254, offset: 0x1E254, size: 0x8, addend: 0x0, symName: __ZNSt3__16vectorINS_12basic_stringIcNS_11char_traitsIcEENS_9allocatorIcEEEENS4_IS6_EEE21_ConstructTransactionD1B7v160006Ev, symObjAddr: 0x72FC, symBinAddr: 0x100009AAC, symSize: 0x2C }
  - { offsetInCU: 0x1E27E, offset: 0x1E27E, size: 0x8, addend: 0x0, symName: __ZNSt3__16vectorINS_12basic_stringIcNS_11char_traitsIcEENS_9allocatorIcEEEENS4_IS6_EEE21_ConstructTransactionC2B7v160006ERS8_m, symObjAddr: 0x7328, symBinAddr: 0x100009AD8, symSize: 0x4C }
  - { offsetInCU: 0x1E2C6, offset: 0x1E2C6, size: 0x8, addend: 0x0, symName: __ZNSt3__19allocatorINS_12basic_stringIcNS_11char_traitsIcEENS0_IcEEEEE9constructB7v160006IS5_JS5_EEEvPT_DpOT0_, symObjAddr: 0x7374, symBinAddr: 0x100009B24, symSize: 0x30 }
  - { offsetInCU: 0x1E31C, offset: 0x1E31C, size: 0x8, addend: 0x0, symName: __ZNSt3__16vectorINS_12basic_stringIcNS_11char_traitsIcEENS_9allocatorIcEEEENS4_IS6_EEE21_ConstructTransactionD2B7v160006Ev, symObjAddr: 0x73A4, symBinAddr: 0x100009B54, symSize: 0x20 }
  - { offsetInCU: 0x1E346, offset: 0x1E346, size: 0x8, addend: 0x0, symName: __ZNKSt3__16vectorINS_12basic_stringIcNS_11char_traitsIcEENS_9allocatorIcEEEENS4_IS6_EEE11__recommendB7v160006Em, symObjAddr: 0x73C4, symBinAddr: 0x100009B74, symSize: 0xB4 }
  - { offsetInCU: 0x1E39B, offset: 0x1E39B, size: 0x8, addend: 0x0, symName: __ZNSt3__114__split_bufferINS_12basic_stringIcNS_11char_traitsIcEENS_9allocatorIcEEEERNS4_IS6_EEEC1EmmS8_, symObjAddr: 0x7478, symBinAddr: 0x100009C28, symSize: 0x44 }
  - { offsetInCU: 0x1E3F1, offset: 0x1E3F1, size: 0x8, addend: 0x0, symName: __ZNSt3__114__split_bufferINS_12basic_stringIcNS_11char_traitsIcEENS_9allocatorIcEEEERNS4_IS6_EEED1Ev, symObjAddr: 0x75D4, symBinAddr: 0x100009D84, symSize: 0x2C }
  - { offsetInCU: 0x1E41D, offset: 0x1E41D, size: 0x8, addend: 0x0, symName: __ZNKSt3__16vectorINS_12basic_stringIcNS_11char_traitsIcEENS_9allocatorIcEEEENS4_IS6_EEE8max_sizeEv, symObjAddr: 0x7600, symBinAddr: 0x100009DB0, symSize: 0x60 }
  - { offsetInCU: 0x1E445, offset: 0x1E445, size: 0x8, addend: 0x0, symName: __ZNKSt3__16vectorINS_12basic_stringIcNS_11char_traitsIcEENS_9allocatorIcEEEENS4_IS6_EEE20__throw_length_errorB7v160006Ev, symObjAddr: 0x7660, symBinAddr: 0x100009E10, symSize: 0x1C }
  - { offsetInCU: 0x1E475, offset: 0x1E475, size: 0x8, addend: 0x0, symName: __ZNSt3__116allocator_traitsINS_9allocatorINS_12basic_stringIcNS_11char_traitsIcEENS1_IcEEEEEEE8max_sizeB7v160006IS7_vEEmRKS7_, symObjAddr: 0x76A8, symBinAddr: 0x100009E58, symSize: 0x24 }
  - { offsetInCU: 0x1E4A3, offset: 0x1E4A3, size: 0x8, addend: 0x0, symName: __ZNKSt3__16vectorINS_12basic_stringIcNS_11char_traitsIcEENS_9allocatorIcEEEENS4_IS6_EEE7__allocB7v160006Ev, symObjAddr: 0x76CC, symBinAddr: 0x100009E7C, symSize: 0x28 }
  - { offsetInCU: 0x1E4C9, offset: 0x1E4C9, size: 0x8, addend: 0x0, symName: __ZNSt3__114numeric_limitsIlE3maxB7v160006Ev, symObjAddr: 0x76F4, symBinAddr: 0x100009EA4, symSize: 0x14 }
  - { offsetInCU: 0x1E4DD, offset: 0x1E4DD, size: 0x8, addend: 0x0, symName: __ZNKSt3__19allocatorINS_12basic_stringIcNS_11char_traitsIcEENS0_IcEEEEE8max_sizeB7v160006Ev, symObjAddr: 0x7708, symBinAddr: 0x100009EB8, symSize: 0x18 }
  - { offsetInCU: 0x1E503, offset: 0x1E503, size: 0x8, addend: 0x0, symName: __ZNKSt3__117__compressed_pairIPNS_12basic_stringIcNS_11char_traitsIcEENS_9allocatorIcEEEENS4_IS6_EEE6secondB7v160006Ev, symObjAddr: 0x7720, symBinAddr: 0x100009ED0, symSize: 0x24 }
  - { offsetInCU: 0x1E529, offset: 0x1E529, size: 0x8, addend: 0x0, symName: __ZNKSt3__122__compressed_pair_elemINS_9allocatorINS_12basic_stringIcNS_11char_traitsIcEENS1_IcEEEEEELi1ELb1EE5__getB7v160006Ev, symObjAddr: 0x7744, symBinAddr: 0x100009EF4, symSize: 0x14 }
  - { offsetInCU: 0x1E54F, offset: 0x1E54F, size: 0x8, addend: 0x0, symName: __ZNSt3__123__libcpp_numeric_limitsIlLb1EE3maxB7v160006Ev, symObjAddr: 0x7758, symBinAddr: 0x100009F08, symSize: 0x8 }
  - { offsetInCU: 0x1E563, offset: 0x1E563, size: 0x8, addend: 0x0, symName: __ZNSt3__114__split_bufferINS_12basic_stringIcNS_11char_traitsIcEENS_9allocatorIcEEEERNS4_IS6_EEEC2EmmS8_, symObjAddr: 0x77B4, symBinAddr: 0x100009F64, symSize: 0xE0 }
  - { offsetInCU: 0x1E5D6, offset: 0x1E5D6, size: 0x8, addend: 0x0, symName: __ZNSt3__117__compressed_pairIPNS_12basic_stringIcNS_11char_traitsIcEENS_9allocatorIcEEEERNS4_IS6_EEEC1B7v160006IDnS9_EEOT_OT0_, symObjAddr: 0x7894, symBinAddr: 0x10000A044, symSize: 0x3C }
  - { offsetInCU: 0x1E62E, offset: 0x1E62E, size: 0x8, addend: 0x0, symName: __ZNSt3__114__split_bufferINS_12basic_stringIcNS_11char_traitsIcEENS_9allocatorIcEEEERNS4_IS6_EEE7__allocB7v160006Ev, symObjAddr: 0x7910, symBinAddr: 0x10000A0C0, symSize: 0x28 }
  - { offsetInCU: 0x1E654, offset: 0x1E654, size: 0x8, addend: 0x0, symName: __ZNSt3__114__split_bufferINS_12basic_stringIcNS_11char_traitsIcEENS_9allocatorIcEEEERNS4_IS6_EEE9__end_capB7v160006Ev, symObjAddr: 0x7938, symBinAddr: 0x10000A0E8, symSize: 0x28 }
  - { offsetInCU: 0x1E67A, offset: 0x1E67A, size: 0x8, addend: 0x0, symName: __ZNSt3__117__compressed_pairIPNS_12basic_stringIcNS_11char_traitsIcEENS_9allocatorIcEEEERNS4_IS6_EEEC2B7v160006IDnS9_EEOT_OT0_, symObjAddr: 0x7960, symBinAddr: 0x10000A110, symSize: 0x48 }
  - { offsetInCU: 0x1E6D2, offset: 0x1E6D2, size: 0x8, addend: 0x0, symName: __ZNSt3__122__compressed_pair_elemIRNS_9allocatorINS_12basic_stringIcNS_11char_traitsIcEENS1_IcEEEEEELi1ELb0EEC2B7v160006IS8_vEEOT_, symObjAddr: 0x79A8, symBinAddr: 0x10000A158, symSize: 0x20 }
  - { offsetInCU: 0x1E714, offset: 0x1E714, size: 0x8, addend: 0x0, symName: __ZNSt3__19allocatorINS_12basic_stringIcNS_11char_traitsIcEENS0_IcEEEEE8allocateB7v160006Em, symObjAddr: 0x79C8, symBinAddr: 0x10000A178, symSize: 0x5C }
  - { offsetInCU: 0x1E748, offset: 0x1E748, size: 0x8, addend: 0x0, symName: __ZNSt3__117__compressed_pairIPNS_12basic_stringIcNS_11char_traitsIcEENS_9allocatorIcEEEERNS4_IS6_EEE6secondB7v160006Ev, symObjAddr: 0x7A24, symBinAddr: 0x10000A1D4, symSize: 0x28 }
  - { offsetInCU: 0x1E76E, offset: 0x1E76E, size: 0x8, addend: 0x0, symName: __ZNSt3__122__compressed_pair_elemIRNS_9allocatorINS_12basic_stringIcNS_11char_traitsIcEENS1_IcEEEEEELi1ELb0EE5__getB7v160006Ev, symObjAddr: 0x7A4C, symBinAddr: 0x10000A1FC, symSize: 0x18 }
  - { offsetInCU: 0x1E794, offset: 0x1E794, size: 0x8, addend: 0x0, symName: __ZNSt3__117__compressed_pairIPNS_12basic_stringIcNS_11char_traitsIcEENS_9allocatorIcEEEERNS4_IS6_EEE5firstB7v160006Ev, symObjAddr: 0x7A64, symBinAddr: 0x10000A214, symSize: 0x24 }
  - { offsetInCU: 0x1E7BA, offset: 0x1E7BA, size: 0x8, addend: 0x0, symName: __ZNSt3__116reverse_iteratorIPNS_12basic_stringIcNS_11char_traitsIcEENS_9allocatorIcEEEEEC1B7v160006ES7_, symObjAddr: 0x7BB4, symBinAddr: 0x10000A364, symSize: 0x34 }
  - { offsetInCU: 0x1E7F2, offset: 0x1E7F2, size: 0x8, addend: 0x0, symName: __ZNKSt3__116reverse_iteratorIPNS_12basic_stringIcNS_11char_traitsIcEENS_9allocatorIcEEEEE4baseB7v160006Ev, symObjAddr: 0x7BE8, symBinAddr: 0x10000A398, symSize: 0x18 }
  - { offsetInCU: 0x1E818, offset: 0x1E818, size: 0x8, addend: 0x0, symName: __ZNKSt3__16vectorINS_12basic_stringIcNS_11char_traitsIcEENS_9allocatorIcEEEENS4_IS6_EEE14__annotate_newB7v160006Em, symObjAddr: 0x7C3C, symBinAddr: 0x10000A3EC, symSize: 0xC8 }
  - { offsetInCU: 0x1E84D, offset: 0x1E84D, size: 0x8, addend: 0x0, symName: __ZNSt3__129_AllocatorDestroyRangeReverseINS_9allocatorINS_12basic_stringIcNS_11char_traitsIcEENS1_IcEEEEEENS_16reverse_iteratorIPS6_EEEC1B7v160006ERS7_RSA_SD_, symObjAddr: 0x7D60, symBinAddr: 0x10000A510, symSize: 0x44 }
  - { offsetInCU: 0x1E8A4, offset: 0x1E8A4, size: 0x8, addend: 0x0, symName: __ZNKSt3__116reverse_iteratorIPNS_12basic_stringIcNS_11char_traitsIcEENS_9allocatorIcEEEEEdeB7v160006Ev, symObjAddr: 0x7E10, symBinAddr: 0x10000A5C0, symSize: 0x28 }
  - { offsetInCU: 0x1E8D8, offset: 0x1E8D8, size: 0x8, addend: 0x0, symName: __ZNSt3__116reverse_iteratorIPNS_12basic_stringIcNS_11char_traitsIcEENS_9allocatorIcEEEEEppB7v160006Ev, symObjAddr: 0x7E38, symBinAddr: 0x10000A5E8, symSize: 0x20 }
  - { offsetInCU: 0x1E8FE, offset: 0x1E8FE, size: 0x8, addend: 0x0, symName: __ZNSt3__128__exception_guard_exceptionsINS_29_AllocatorDestroyRangeReverseINS_9allocatorINS_12basic_stringIcNS_11char_traitsIcEENS2_IcEEEEEENS_16reverse_iteratorIPS7_EEEEE10__completeB7v160006Ev, symObjAddr: 0x7E58, symBinAddr: 0x10000A608, symSize: 0x1C }
  - { offsetInCU: 0x1E924, offset: 0x1E924, size: 0x8, addend: 0x0, symName: __ZNSt3__128__exception_guard_exceptionsINS_29_AllocatorDestroyRangeReverseINS_9allocatorINS_12basic_stringIcNS_11char_traitsIcEENS2_IcEEEEEENS_16reverse_iteratorIPS7_EEEEED1B7v160006Ev, symObjAddr: 0x7E74, symBinAddr: 0x10000A624, symSize: 0x2C }
  - { offsetInCU: 0x1E94E, offset: 0x1E94E, size: 0x8, addend: 0x0, symName: __ZNSt3__128__exception_guard_exceptionsINS_29_AllocatorDestroyRangeReverseINS_9allocatorINS_12basic_stringIcNS_11char_traitsIcEENS2_IcEEEEEENS_16reverse_iteratorIPS7_EEEEEC1B7v160006ESC_, symObjAddr: 0x7EA0, symBinAddr: 0x10000A650, symSize: 0x34 }
  - { offsetInCU: 0x1E987, offset: 0x1E987, size: 0x8, addend: 0x0, symName: __ZNSt3__128__exception_guard_exceptionsINS_29_AllocatorDestroyRangeReverseINS_9allocatorINS_12basic_stringIcNS_11char_traitsIcEENS2_IcEEEEEENS_16reverse_iteratorIPS7_EEEEEC2B7v160006ESC_, symObjAddr: 0x7ED4, symBinAddr: 0x10000A684, symSize: 0x30 }
  - { offsetInCU: 0x1E9C0, offset: 0x1E9C0, size: 0x8, addend: 0x0, symName: __ZNSt3__129_AllocatorDestroyRangeReverseINS_9allocatorINS_12basic_stringIcNS_11char_traitsIcEENS1_IcEEEEEENS_16reverse_iteratorIPS6_EEEC2B7v160006ERS7_RSA_SD_, symObjAddr: 0x7F04, symBinAddr: 0x10000A6B4, symSize: 0x38 }
  - { offsetInCU: 0x1EA1C, offset: 0x1EA1C, size: 0x8, addend: 0x0, symName: __ZNSt3__119__to_address_helperINS_16reverse_iteratorIPNS_12basic_stringIcNS_11char_traitsIcEENS_9allocatorIcEEEEEEvE6__callB7v160006ERKS9_, symObjAddr: 0x7F3C, symBinAddr: 0x10000A6EC, symSize: 0x38 }
  - { offsetInCU: 0x1EA3F, offset: 0x1EA3F, size: 0x8, addend: 0x0, symName: __ZNKSt3__116reverse_iteratorIPNS_12basic_stringIcNS_11char_traitsIcEENS_9allocatorIcEEEEEptB7v160006Ev, symObjAddr: 0x7F74, symBinAddr: 0x10000A724, symSize: 0x24 }
  - { offsetInCU: 0x1EA65, offset: 0x1EA65, size: 0x8, addend: 0x0, symName: __ZNSt3__128__exception_guard_exceptionsINS_29_AllocatorDestroyRangeReverseINS_9allocatorINS_12basic_stringIcNS_11char_traitsIcEENS2_IcEEEEEENS_16reverse_iteratorIPS7_EEEEED2B7v160006Ev, symObjAddr: 0x7F98, symBinAddr: 0x10000A748, symSize: 0x50 }
  - { offsetInCU: 0x1EA8F, offset: 0x1EA8F, size: 0x8, addend: 0x0, symName: __ZNKSt3__129_AllocatorDestroyRangeReverseINS_9allocatorINS_12basic_stringIcNS_11char_traitsIcEENS1_IcEEEEEENS_16reverse_iteratorIPS6_EEEclB7v160006Ev, symObjAddr: 0x7FE8, symBinAddr: 0x10000A798, symSize: 0xB4 }
  - { offsetInCU: 0x1EAB6, offset: 0x1EAB6, size: 0x8, addend: 0x0, symName: __ZNSt3__116reverse_iteratorINS0_IPNS_12basic_stringIcNS_11char_traitsIcEENS_9allocatorIcEEEEEEEC1B7v160006ES8_, symObjAddr: 0x810C, symBinAddr: 0x10000A8BC, symSize: 0x3C }
  - { offsetInCU: 0x1EAEE, offset: 0x1EAEE, size: 0x8, addend: 0x0, symName: __ZNSt3__116reverse_iteratorINS0_IPNS_12basic_stringIcNS_11char_traitsIcEENS_9allocatorIcEEEEEEEppB7v160006Ev, symObjAddr: 0x81CC, symBinAddr: 0x10000A97C, symSize: 0x30 }
  - { offsetInCU: 0x1EB14, offset: 0x1EB14, size: 0x8, addend: 0x0, symName: __ZNKSt3__116reverse_iteratorINS0_IPNS_12basic_stringIcNS_11char_traitsIcEENS_9allocatorIcEEEEEEE4baseB7v160006Ev, symObjAddr: 0x81FC, symBinAddr: 0x10000A9AC, symSize: 0x24 }
  - { offsetInCU: 0x1EB3F, offset: 0x1EB3F, size: 0x8, addend: 0x0, symName: __ZNSt3__119__to_address_helperINS_16reverse_iteratorINS1_IPNS_12basic_stringIcNS_11char_traitsIcEENS_9allocatorIcEEEEEEEEvE6__callB7v160006ERKSA_, symObjAddr: 0x8220, symBinAddr: 0x10000A9D0, symSize: 0x38 }
  - { offsetInCU: 0x1EB62, offset: 0x1EB62, size: 0x8, addend: 0x0, symName: __ZNKSt3__116reverse_iteratorINS0_IPNS_12basic_stringIcNS_11char_traitsIcEENS_9allocatorIcEEEEEEEptB7v160006Ev, symObjAddr: 0x8258, symBinAddr: 0x10000AA08, symSize: 0x24 }
  - { offsetInCU: 0x1EB88, offset: 0x1EB88, size: 0x8, addend: 0x0, symName: __ZNKSt3__116reverse_iteratorINS0_IPNS_12basic_stringIcNS_11char_traitsIcEENS_9allocatorIcEEEEEEEdeB7v160006Ev, symObjAddr: 0x827C, symBinAddr: 0x10000AA2C, symSize: 0x34 }
  - { offsetInCU: 0x1EBBC, offset: 0x1EBBC, size: 0x8, addend: 0x0, symName: __ZNSt3__116reverse_iteratorIPNS_12basic_stringIcNS_11char_traitsIcEENS_9allocatorIcEEEEEmmB7v160006Ev, symObjAddr: 0x82B0, symBinAddr: 0x10000AA60, symSize: 0x20 }
  - { offsetInCU: 0x1EBE2, offset: 0x1EBE2, size: 0x8, addend: 0x0, symName: __ZNSt3__116reverse_iteratorINS0_IPNS_12basic_stringIcNS_11char_traitsIcEENS_9allocatorIcEEEEEEEC2B7v160006ES8_, symObjAddr: 0x82D0, symBinAddr: 0x10000AA80, symSize: 0x2C }
  - { offsetInCU: 0x1EC1A, offset: 0x1EC1A, size: 0x8, addend: 0x0, symName: __ZNSt3__116reverse_iteratorIPNS_12basic_stringIcNS_11char_traitsIcEENS_9allocatorIcEEEEEC2B7v160006ES7_, symObjAddr: 0x82FC, symBinAddr: 0x10000AAAC, symSize: 0x28 }
  - { offsetInCU: 0x1EC52, offset: 0x1EC52, size: 0x8, addend: 0x0, symName: __ZNSt3__114__split_bufferINS_12basic_stringIcNS_11char_traitsIcEENS_9allocatorIcEEEERNS4_IS6_EEED2Ev, symObjAddr: 0x8324, symBinAddr: 0x10000AAD4, symSize: 0x8C }
  - { offsetInCU: 0x1EC7E, offset: 0x1EC7E, size: 0x8, addend: 0x0, symName: __ZNSt3__114__split_bufferINS_12basic_stringIcNS_11char_traitsIcEENS_9allocatorIcEEEERNS4_IS6_EEE5clearB7v160006Ev, symObjAddr: 0x83B0, symBinAddr: 0x10000AB60, symSize: 0x28 }
  - { offsetInCU: 0x1ECA4, offset: 0x1ECA4, size: 0x8, addend: 0x0, symName: __ZNKSt3__114__split_bufferINS_12basic_stringIcNS_11char_traitsIcEENS_9allocatorIcEEEERNS4_IS6_EEE8capacityB7v160006Ev, symObjAddr: 0x83D8, symBinAddr: 0x10000AB88, symSize: 0x40 }
  - { offsetInCU: 0x1ECCA, offset: 0x1ECCA, size: 0x8, addend: 0x0, symName: __ZNSt3__114__split_bufferINS_12basic_stringIcNS_11char_traitsIcEENS_9allocatorIcEEEERNS4_IS6_EEE17__destruct_at_endB7v160006EPS6_, symObjAddr: 0x8418, symBinAddr: 0x10000ABC8, symSize: 0x2C }
  - { offsetInCU: 0x1ECFE, offset: 0x1ECFE, size: 0x8, addend: 0x0, symName: __ZNSt3__114__split_bufferINS_12basic_stringIcNS_11char_traitsIcEENS_9allocatorIcEEEERNS4_IS6_EEE17__destruct_at_endB7v160006EPS6_NS_17integral_constantIbLb0EEE, symObjAddr: 0x8444, symBinAddr: 0x10000ABF4, symSize: 0x80 }
  - { offsetInCU: 0x1ED3F, offset: 0x1ED3F, size: 0x8, addend: 0x0, symName: __ZNKSt3__114__split_bufferINS_12basic_stringIcNS_11char_traitsIcEENS_9allocatorIcEEEERNS4_IS6_EEE9__end_capB7v160006Ev, symObjAddr: 0x84C4, symBinAddr: 0x10000AC74, symSize: 0x28 }
  - { offsetInCU: 0x1ED65, offset: 0x1ED65, size: 0x8, addend: 0x0, symName: __ZNKSt3__117__compressed_pairIPNS_12basic_stringIcNS_11char_traitsIcEENS_9allocatorIcEEEERNS4_IS6_EEE5firstB7v160006Ev, symObjAddr: 0x84EC, symBinAddr: 0x10000AC9C, symSize: 0x24 }
  - { offsetInCU: 0x1ED8B, offset: 0x1ED8B, size: 0x8, addend: 0x0, symName: __ZNSt3__16__treeINS_12__value_typeINS_12basic_stringIcNS_11char_traitsIcEENS_9allocatorIcEEEEP4nodeEENS_19__map_value_compareIS7_SA_NS_4lessIS7_EELb1EEENS5_ISA_EEE4findIS7_EENS_15__tree_iteratorISA_PNS_11__tree_nodeISA_PvEElEERKT_, symObjAddr: 0x8510, symBinAddr: 0x10000ACC0, symSize: 0xF8 }
  - { offsetInCU: 0x1EDDA, offset: 0x1EDDA, size: 0x8, addend: 0x0, symName: __ZNSt3__114__map_iteratorINS_15__tree_iteratorINS_12__value_typeINS_12basic_stringIcNS_11char_traitsIcEENS_9allocatorIcEEEEP4nodeEEPNS_11__tree_nodeISB_PvEElEEEC1B7v160006ESG_, symObjAddr: 0x8608, symBinAddr: 0x10000ADB8, symSize: 0x34 }
  - { offsetInCU: 0x1EE13, offset: 0x1EE13, size: 0x8, addend: 0x0, symName: __ZNSt3__16__treeINS_12__value_typeINS_12basic_stringIcNS_11char_traitsIcEENS_9allocatorIcEEEEP4nodeEENS_19__map_value_compareIS7_SA_NS_4lessIS7_EELb1EEENS5_ISA_EEE13__lower_boundIS7_EENS_15__tree_iteratorISA_PNS_11__tree_nodeISA_PvEElEERKT_SM_PNS_15__tree_end_nodeIPNS_16__tree_node_baseISK_EEEE, symObjAddr: 0x863C, symBinAddr: 0x10000ADEC, symSize: 0xA4 }
  - { offsetInCU: 0x1EE71, offset: 0x1EE71, size: 0x8, addend: 0x0, symName: __ZNSt3__16__treeINS_12__value_typeINS_12basic_stringIcNS_11char_traitsIcEENS_9allocatorIcEEEEP4nodeEENS_19__map_value_compareIS7_SA_NS_4lessIS7_EELb1EEENS5_ISA_EEE3endB7v160006Ev, symObjAddr: 0x8714, symBinAddr: 0x10000AEC4, symSize: 0x34 }
  - { offsetInCU: 0x1EE97, offset: 0x1EE97, size: 0x8, addend: 0x0, symName: __ZNKSt3__115__tree_iteratorINS_12__value_typeINS_12basic_stringIcNS_11char_traitsIcEENS_9allocatorIcEEEEP4nodeEEPNS_11__tree_nodeISA_PvEElEdeB7v160006Ev, symObjAddr: 0x8748, symBinAddr: 0x10000AEF8, symSize: 0x28 }
  - { offsetInCU: 0x1EEBD, offset: 0x1EEBD, size: 0x8, addend: 0x0, symName: __ZNSt3__115__tree_iteratorINS_12__value_typeINS_12basic_stringIcNS_11char_traitsIcEENS_9allocatorIcEEEEP4nodeEEPNS_11__tree_nodeISA_PvEElEC1B7v160006EPNS_15__tree_end_nodeIPNS_16__tree_node_baseISC_EEEE, symObjAddr: 0x8770, symBinAddr: 0x10000AF20, symSize: 0x34 }
  - { offsetInCU: 0x1EEF6, offset: 0x1EEF6, size: 0x8, addend: 0x0, symName: __ZNSt3__115__tree_iteratorINS_12__value_typeINS_12basic_stringIcNS_11char_traitsIcEENS_9allocatorIcEEEEP4nodeEEPNS_11__tree_nodeISA_PvEElEC2B7v160006EPNS_15__tree_end_nodeIPNS_16__tree_node_baseISC_EEEE, symObjAddr: 0x87A4, symBinAddr: 0x10000AF54, symSize: 0x20 }
  - { offsetInCU: 0x1EF2F, offset: 0x1EF2F, size: 0x8, addend: 0x0, symName: __ZNSt3__114__map_iteratorINS_15__tree_iteratorINS_12__value_typeINS_12basic_stringIcNS_11char_traitsIcEENS_9allocatorIcEEEEP4nodeEEPNS_11__tree_nodeISB_PvEElEEEC2B7v160006ESG_, symObjAddr: 0x87F4, symBinAddr: 0x10000AFA4, symSize: 0x20 }
  - { offsetInCU: 0x1EF68, offset: 0x1EF68, size: 0x8, addend: 0x0, symName: __ZNSt3__114pointer_traitsIPNS_4pairIKNS_12basic_stringIcNS_11char_traitsIcEENS_9allocatorIcEEEEP4nodeEEE10pointer_toB7v160006ERSB_, symObjAddr: 0x8814, symBinAddr: 0x10000AFC4, symSize: 0x14 }
  - { offsetInCU: 0x1EF8B, offset: 0x1EF8B, size: 0x8, addend: 0x0, symName: __ZNSt3__16__treeINS_12__value_typeINS_12basic_stringIcNS_11char_traitsIcEENS_9allocatorIcEEEEP4nodeEENS_19__map_value_compareIS7_SA_NS_4lessIS7_EELb1EEENS5_ISA_EEE5beginB7v160006Ev, symObjAddr: 0x8828, symBinAddr: 0x10000AFD8, symSize: 0x34 }
  - { offsetInCU: 0x1EFB1, offset: 0x1EFB1, size: 0x8, addend: 0x0, symName: __ZNSt3__115__tree_iteratorINS_12__value_typeINS_12basic_stringIcNS_11char_traitsIcEENS_9allocatorIcEEEEP4nodeEEPNS_11__tree_nodeISA_PvEElEppB7v160006Ev, symObjAddr: 0x885C, symBinAddr: 0x10000B00C, symSize: 0x38 }
...
